S'Basement'
p1
.(I640
I480
tp1
.(I121
I441
tp1
.(lp1
(I-15
I0
tp2
a(I655
I0
tp3
a(I655
I49
tp4
a(I-15
I98
tp5
a(I655
I98
tp6
a(I-15
I147
tp7
a(I655
I147
tp8
a(I-15
I196
tp9
a(I655
I196
tp10
a(I-15
I294
tp11
a(I655
I294
tp12
a(I-15
I343
tp13
a(I655
I343
tp14
a(I-15
I392
tp15
a(I655
I392
tp16
a(I-15
I441
tp17
a(I655
I441
tp18
a(I655
I0
tp19
a(I-15
I49
tp20
a(I-15
I49
tp21
a(I655
I49
tp22
a(I655
I441
tp23
a(I-15
I98
tp24
a(I655
I98
tp25
a(I-15
I147
tp26
a(I655
I147
tp27
a(I-15
I0
tp28
a(I-15
I196
tp29
a(I655
I196
tp30
a(I-15
I392
tp31
a(I-15
I245
tp32
a(I-15
I245
tp33
a(I-15
I441
tp34
a(I-15
I294
tp35
a(I655
I294
tp36
a(I-15
I343
tp37
a(I655
I343
tp38
a(I655
I245
tp39
a(I655
I392
tp40
a(I655
I245
tp41
a.(lp1
(I539
I-15
tp2
a(I539
I487
tp3
a(I588
I-15
tp4
a(I588
I487
tp5
a(I637
I-15
tp6
a(I637
I487
tp7
a(I245
I487
tp8
a(I0
I-15
tp9
a(I343
I-15
tp10
a(I49
I-15
tp11
a(I49
I487
tp12
a(I98
I-15
tp13
a(I98
I487
tp14
a(I147
I-15
tp15
a(I147
I487
tp16
a(I196
I487
tp17
a(I98
I-15
tp18
a(I98
I487
tp19
a(I147
I-15
tp20
a(I147
I487
tp21
a(I196
I-15
tp22
a(I196
I-15
tp23
a(I196
I487
tp24
a(I245
I-15
tp25
a(I245
I487
tp26
a(I343
I-15
tp27
a(I343
I487
tp28
a(I392
I-15
tp29
a(I392
I487
tp30
a(I441
I-15
tp31
a(I441
I487
tp32
a(I294
I-15
tp33
a(I490
I-15
tp34
a(I490
I487
tp35
a(I539
I-15
tp36
a(I539
I487
tp37
a(I588
I-15
tp38
a(I588
I487
tp39
a(I245
I-15
tp40
a(I637
I-15
tp41
a(I637
I487
tp42
a(I294
I487
tp43
a(I0
I487
tp44
a(I0
I-15
tp45
a(I294
I-15
tp46
a(I49
I-15
tp47
a(I49
I487
tp48
a(I294
I487
tp49
a(I0
I487
tp50
a(I343
I487
tp51
a(I392
I-15
tp52
a(I392
I487
tp53
a(I441
I-15
tp54
a(I441
I487
tp55
a(I490
I-15
tp56
a(I490
I487
tp57
a.(lp1
.(lp1
.(lp1
.(I262
I434
t.