S'Apartment'
p1
.(I3000
I750
tp1
.(I1074
I717
tp1
.(lp1
(I-10
I552
tp2
a(I2272
I550
tp3
a(I-10
I368
tp4
a(I-10
I276
tp5
a(I3010
I276
tp6
a(I-10
I322
tp7
a(I3010
I92
tp8
a(I-10
I0
tp9
a(I3010
I368
tp10
a(I2439
I364
tp11
a(I3010
I138
tp12
a(I-10
I598
tp13
a(I1414
I18
tp14
a(I3010
I644
tp15
a(I-10
I506
tp16
a(I-10
I230
tp17
a(I-10
I368
tp18
a(I2289
I164
tp19
a(I289
I153
tp20
a(I1636
I672
tp21
a(I151
I579
tp22
a(I-10
I276
tp23
a(I-10
I46
tp24
a(I3010
I46
tp25
a(I3010
I368
tp26
a(I2439
I482
tp27
a(I2439
I458
tp28
a(I1141
I471
tp29
a(I1850
I348
tp30
a(I808
I115
tp31
a(I3010
I184
tp32
a(I3010
I322
tp33
a(I-10
I92
tp34
a(I1141
I520
tp35
a(I-10
I230
tp36
a(I-10
I0
tp37
a(I1142
I734
tp38
a(I3010
I46
tp39
a(I150
I480
tp40
a(I-10
I230
tp41
a(I-10
I322
tp42
a(I3010
I552
tp43
a(I-10
I736
tp44
a(I-10
I644
tp45
a(I1268
I549
tp46
a(I-10
I230
tp47
a(I3010
I92
tp48
a(I3010
I598
tp49
a(I-10
I690
tp50
a(I3010
I414
tp51
a(I3010
I0
tp52
a(I3010
I552
tp53
a(I3010
I736
tp54
a(I-10
I552
tp55
a(I1850
I324
tp56
a(I3010
I230
tp57
a(I3010
I506
tp58
a(I-10
I598
tp59
a(I3010
I552
tp60
a(I-10
I552
tp61
a(I3010
I598
tp62
a(I1141
I618
tp63
a(I2008
I246
tp64
a(I3010
I368
tp65
a(I3010
I414
tp66
a(I2834
I551
tp67
a(I-10
I598
tp68
a(I2369
I272
tp69
a(I3010
I552
tp70
a(I1019
I323
tp71
a(I-10
I46
tp72
a(I3010
I230
tp73
a(I2141
I439
tp74
a(I3010
I276
tp75
a(I3010
I46
tp76
a(I3010
I230
tp77
a(I3010
I414
tp78
a(I-10
I598
tp79
a(I1565
I156
tp80
a(I3010
I414
tp81
a(I2141
I465
tp82
a(I2141
I498
tp83
a(I3010
I690
tp84
a(I3010
I644
tp85
a(I-10
I184
tp86
a(I-10
I138
tp87
a(I-10
I552
tp88
a(I1565
I83
tp89
a(I3010
I46
tp90
a(I1352
I129
tp91
a(I-10
I322
tp92
a(I1674
I384
tp93
a(I2617
I97
tp94
a(I2369
I216
tp95
a(I3010
I322
tp96
a(I3010
I138
tp97
a(I-10
I92
tp98
a(I3010
I230
tp99
a(I-10
I368
tp100
a(I2360
I712
tp101
a(I3010
I644
tp102
a(I1937
I127
tp103
a(I3010
I736
tp104
a(I-10
I460
tp105
a(I3010
I506
tp106
a(I3010
I552
tp107
a(I2272
I595
tp108
a(I436
I154
tp109
a(I2369
I238
tp110
a(I722
I272
tp111
a(I3010
I644
tp112
a(I-10
I276
tp113
a(I3010
I276
tp114
a(I3010
I460
tp115
a(I1674
I208
tp116
a(I-10
I46
tp117
a(I3010
I368
tp118
a(I-10
I460
tp119
a(I-10
I138
tp120
a(I3010
I460
tp121
a(I-10
I736
tp122
a(I3010
I690
tp123
a(I-10
I644
tp124
a(I-10
I46
tp125
a(I1268
I593
tp126
a(I3010
I506
tp127
a(I3010
I598
tp128
a(I-10
I414
tp129
a(I3010
I690
tp130
a(I-10
I368
tp131
a(I-10
I414
tp132
a(I3010
I322
tp133
a(I3010
I368
tp134
a(I3010
I276
tp135
a(I2289
I146
tp136
a(I3010
I552
tp137
a(I1141
I499
tp138
a(I-10
I460
tp139
a(I-10
I276
tp140
a(I-10
I690
tp141
a(I-10
I644
tp142
a(I1636
I550
tp143
a(I-10
I552
tp144
a(I-10
I138
tp145
a(I3010
I92
tp146
a(I-10
I368
tp147
a(I-10
I736
tp148
a(I3010
I552
tp149
a(I-10
I460
tp150
a(I-10
I644
tp151
a(I-10
I92
tp152
a(I2142
I163
tp153
a(I722
I233
tp154
a(I-10
I736
tp155
a(I3010
I598
tp156
a(I-10
I92
tp157
a(I-10
I322
tp158
a(I3010
I184
tp159
a(I3010
I460
tp160
a(I1019
I212
tp161
a(I3010
I230
tp162
a(I1636
I593
tp163
a(I-10
I460
tp164
a(I2506
I232
tp165
a(I1565
I497
tp166
a(I289
I92
tp167
a(I-10
I0
tp168
a(I3010
I230
tp169
a(I3010
I460
tp170
a(I436
I93
tp171
a(I-10
I368
tp172
a(I3010
I184
tp173
a(I3010
I736
tp174
a(I1268
I570
tp175
a(I-10
I690
tp176
a(I-10
I0
tp177
a(I-10
I644
tp178
a(I289
I111
tp179
a(I-10
I414
tp180
a(I1636
I705
tp181
a(I3010
I506
tp182
a(I3010
I414
tp183
a(I1019
I384
tp184
a(I-10
I460
tp185
a(I1674
I234
tp186
a(I3010
I46
tp187
a(I1141
I544
tp188
a(I-10
I598
tp189
a(I-10
I184
tp190
a(I-10
I92
tp191
a(I1352
I97
tp192
a(I151
I613
tp193
a(I-10
I184
tp194
a(I2141
I364
tp195
a(I-10
I322
tp196
a(I-10
I92
tp197
a(I3010
I414
tp198
a(I-10
I0
tp199
a(I-10
I506
tp200
a(I947
I687
tp201
a(I-10
I46
tp202
a(I1674
I169
tp203
a(I-10
I690
tp204
a(I3010
I414
tp205
a(I-10
I414
tp206
a(I1636
I618
tp207
a(I3010
I414
tp208
a(I-10
I322
tp209
a(I3010
I690
tp210
a(I2506
I159
tp211
a(I-10
I690
tp212
a(I3010
I276
tp213
a(I3010
I184
tp214
a(I1565
I214
tp215
a(I-10
I184
tp216
a(I3010
I0
tp217
a(I1850
I377
tp218
a(I3010
I230
tp219
a(I1565
I243
tp220
a(I2141
I384
tp221
a(I-10
I690
tp222
a(I3010
I552
tp223
a(I3010
I276
tp224
a(I3010
I46
tp225
a(I-10
I460
tp226
a(I-10
I184
tp227
a(I-10
I46
tp228
a(I-10
I552
tp229
a(I1019
I228
tp230
a(I-10
I368
tp231
a(I-10
I276
tp232
a(I3010
I138
tp233
a(I2439
I387
tp234
a(I-10
I644
tp235
a(I-10
I690
tp236
a(I3010
I414
tp237
a(I3010
I736
tp238
a(I3010
I184
tp239
a(I1674
I497
tp240
a(I3010
I138
tp241
a(I-10
I460
tp242
a(I3010
I92
tp243
a(I-10
I138
tp244
a(I3010
I184
tp245
a(I-10
I506
tp246
a(I-10
I322
tp247
a(I-10
I184
tp248
a(I-10
I184
tp249
a(I1414
I45
tp250
a(I-10
I506
tp251
a(I1565
I436
tp252
a(I-10
I414
tp253
a(I1295
I15
tp254
a(I-10
I460
tp255
a(I3010
I184
tp256
a(I-10
I552
tp257
a(I2008
I272
tp258
a(I808
I95
tp259
a(I3010
I46
tp260
a(I3010
I644
tp261
a(I3010
I644
tp262
a(I383
I225
tp263
a(I-10
I230
tp264
a(I-10
I690
tp265
a(I2617
I124
tp266
a(I3010
I506
tp267
a(I-10
I506
tp268
a(I1565
I40
tp269
a(I1352
I160
tp270
a(I3010
I138
tp271
a(I3010
I506
tp272
a(I3010
I598
tp273
a(I-10
I276
tp274
a(I3010
I644
tp275
a(I3010
I0
tp276
a(I-10
I736
tp277
a(I3010
I184
tp278
a(I-10
I368
tp279
a(I-10
I552
tp280
a(I3010
I0
tp281
a(I2384
I5
tp282
a(I1565
I18
tp283
a(I1565
I483
tp284
a(I-10
I552
tp285
a(I2834
I590
tp286
a(I3010
I322
tp287
a(I-10
I0
tp288
a(I-10
I138
tp289
a(I1850
I385
tp290
a(I3010
I230
tp291
a(I-10
I644
tp292
a(I1565
I460
tp293
a(I-10
I690
tp294
a(I3010
I736
tp295
a(I3010
I322
tp296
a(I2506
I114
tp297
a(I1674
I274
tp298
a(I3010
I46
tp299
a(I3010
I92
tp300
a(I3010
I736
tp301
a(I3010
I138
tp302
a(I1674
I343
tp303
a(I-10
I0
tp304
a(I3010
I230
tp305
a(I-10
I322
tp306
a(I3010
I690
tp307
a(I2142
I17
tp308
a(I-10
I46
tp309
a(I3010
I644
tp310
a(I3010
I460
tp311
a(I-10
I230
tp312
a(I1019
I347
tp313
a(I1674
I119
tp314
a(I-10
I0
tp315
a(I3010
I414
tp316
a(I-10
I276
tp317
a(I1268
I620
tp318
a(I3010
I322
tp319
a(I3010
I506
tp320
a(I3010
I46
tp321
a(I1565
I323
tp322
a(I3010
I92
tp323
a(I-10
I506
tp324
a(I2617
I119
tp325
a(I3010
I690
tp326
a(I-10
I276
tp327
a(I1674
I100
tp328
a(I1565
I372
tp329
a(I3010
I644
tp330
a(I2289
I100
tp331
a(I-10
I690
tp332
a(I1141
I578
tp333
a(I2834
I567
tp334
a(I-10
I138
tp335
a(I3010
I690
tp336
a(I722
I212
tp337
a(I3010
I322
tp338
a(I-10
I0
tp339
a(I3010
I368
tp340
a(I150
I500
tp341
a(I1842
I48
tp342
a(I-10
I46
tp343
a(I1674
I144
tp344
a(I3010
I322
tp345
a(I3010
I368
tp346
a(I3010
I690
tp347
a(I3010
I460
tp348
a(I2360
I733
tp349
a(I-10
I138
tp350
a(I-10
I46
tp351
a(I3010
I0
tp352
a(I3010
I0
tp353
a(I-10
I598
tp354
a(I-10
I414
tp355
a(I3010
I598
tp356
a(I3010
I184
tp357
a(I3010
I598
tp358
a(I3010
I644
tp359
a(I-10
I230
tp360
a(I1141
I437
tp361
a(I1565
I354
tp362
a(I-10
I276
tp363
a(I-10
I552
tp364
a(I1674
I412
tp365
a(I-10
I230
tp366
a(I3010
I506
tp367
a(I3010
I138
tp368
a(I2439
I497
tp369
a(I2142
I50
tp370
a(I-10
I506
tp371
a(I3010
I690
tp372
a(I3010
I184
tp373
a(I3010
I598
tp374
a(I-10
I276
tp375
a(I2142
I102
tp376
a(I1019
I270
tp377
a(I3010
I368
tp378
a(I3010
I322
tp379
a(I3010
I368
tp380
a(I3010
I276
tp381
a(I3010
I736
tp382
a(I-10
I460
tp383
a(I3010
I506
tp384
a(I3010
I552
tp385
a(I2272
I620
tp386
a(I-10
I92
tp387
a(I3010
I92
tp388
a(I-10
I368
tp389
a(I-10
I92
tp390
a(I1565
I60
tp391
a(I-10
I506
tp392
a(I947
I673
tp393
a(I1674
I427
tp394
a(I-10
I138
tp395
a(I3010
I552
tp396
a(I-10
I506
tp397
a(I3010
I690
tp398
a(I-10
I230
tp399
a(I-10
I138
tp400
a(I-10
I644
tp401
a(I-10
I736
tp402
a(I3010
I460
tp403
a(I150
I439
tp404
a(I-10
I552
tp405
a(I3010
I0
tp406
a(I-10
I368
tp407
a(I3010
I92
tp408
a(I3010
I598
tp409
a(I-10
I92
tp410
a(I3010
I92
tp411
a(I3010
I552
tp412
a(I947
I696
tp413
a(I-10
I506
tp414
a(I-10
I184
tp415
a(I3010
I276
tp416
a(I2141
I324
tp417
a(I-10
I0
tp418
a(I947
I730
tp419
a(I3010
I506
tp420
a(I-10
I230
tp421
a(I1636
I689
tp422
a(I3010
I138
tp423
a(I3010
I230
tp424
a(I2360
I672
tp425
a(I2617
I159
tp426
a(I3010
I598
tp427
a(I-10
I322
tp428
a(I-10
I690
tp429
a(I150
I463
tp430
a(I3010
I322
tp431
a(I1565
I273
tp432
a(I-10
I598
tp433
a(I-10
I138
tp434
a(I3010
I460
tp435
a(I3010
I598
tp436
a(I-10
I184
tp437
a(I3010
I368
tp438
a(I2384
I47
tp439
a(I3010
I736
tp440
a(I2439
I439
tp441
a(I3010
I92
tp442
a(I2506
I98
tp443
a(I3010
I0
tp444
a(I808
I157
tp445
a(I3010
I276
tp446
a(I3010
I460
tp447
a(I-10
I92
tp448
a(I2141
I346
tp449
a(I1565
I384
tp450
a(I1273
I-34
tp451
a(I152
I552
tp452
a(I2439
I324
tp453
a(I1674
I311
tp454
a(I-10
I644
tp455
a(I1842
I20
tp456
a(I3010
I690
tp457
a(I3010
I138
tp458
a(I3010
I46
tp459
a(I-10
I184
tp460
a(I3010
I460
tp461
a(I-10
I736
tp462
a(I3010
I460
tp463
a(I-10
I92
tp464
a(I-10
I322
tp465
a(I-10
I460
tp466
a(I-10
I184
tp467
a(I-10
I598
tp468
a(I-10
I736
tp469
a(I1936
I101
tp470
a(I1142
I676
tp471
a(I1295
I44
tp472
a(I383
I206
tp473
a(I-10
I0
tp474
a(I3010
I138
tp475
a(I3010
I414
tp476
a(I3010
I506
tp477
a(I-10
I46
tp478
a(I3010
I368
tp479
a(I2506
I272
tp480
a(I1141
I454
tp481
a(I383
I269
tp482
a(I-10
I414
tp483
a(I3010
I230
tp484
a(I3010
I276
tp485
a(I-10
I644
tp486
a(I2142
I147
tp487
a(I3010
I736
tp488
a(I2289
I115
tp489
a(I1565
I184
tp490
a(I-10
I322
tp491
a(I1636
I732
tp492
a(I3010
I138
tp493
a(I2506
I212
tp494
a(I3010
I0
tp495
a(I-10
I644
tp496
a(I3010
I276
tp497
a(I-10
I276
tp498
a(I3010
I92
tp499
a(I436
I105
tp500
a(I-10
I414
tp501
a(I1674
I458
tp502
a(I3010
I736
tp503
a(I1565
I116
tp504
a(I-10
I230
tp505
a(I-10
I414
tp506
a(I1937
I164
tp507
a(I2439
I342
tp508
a(I-10
I598
tp509
a(I3010
I736
tp510
a(I3010
I184
tp511
a(I-10
I46
tp512
a(I2834
I621
tp513
a(I-10
I368
tp514
a(I3010
I46
tp515
a(I1142
I702
tp516
a(I1636
I572
tp517
a(I-10
I414
tp518
a(I-10
I736
tp519
a(I-10
I506
tp520
a(I-10
I138
tp521
a(I-10
I598
tp522
a(I3010
I0
tp523
a(I3010
I644
tp524
a(I-10
I736
tp525
a(I-10
I414
tp526
a(I-10
I598
tp527
a(I436
I119
tp528
a(I3010
I0
tp529
a(I-10
I736
tp530
a(I3010
I322
tp531
a(I2008
I218
tp532
a(I2360
I697
tp533
a.(lp1
(I1040
I754
tp2
a(I2860
I754
tp3
a(I468
I754
tp4
a(I2139
I76
tp5
a(I1924
I755
tp6
a(I1092
I-10
tp7
a(I1924
I754
tp8
a(I2815
I413
tp9
a(I645
I67
tp10
a(I2288
I-8
tp11
a(I624
I755
tp12
a(I1814
I524
tp13
a(I2707
I186
tp14
a(I2132
I-8
tp15
a(I1768
I-8
tp16
a(I1300
I-10
tp17
a(I1352
I755
tp18
a(I2401
I524
tp19
a(I936
I-10
tp20
a(I1412
I524
tp21
a(I208
I754
tp22
a(I1352
I755
tp23
a(I2883
I647
tp24
a(I2912
I754
tp25
a(I1976
I-8
tp26
a(I2736
I72
tp27
a(I676
I-10
tp28
a(I2874
I413
tp29
a(I780
I-8
tp30
a(I2288
I755
tp31
a(I2028
I-8
tp32
a(I1768
I-10
tp33
a(I728
I-8
tp34
a(I468
I-10
tp35
a(I2392
I-8
tp36
a(I988
I-8
tp37
a(I728
I754
tp38
a(I104
I755
tp39
a(I362
I180
tp40
a(I2578
I72
tp41
a(I2184
I-8
tp42
a(I1456
I-10
tp43
a(I2340
I755
tp44
a(I2548
I754
tp45
a(I312
I755
tp46
a(I156
I-8
tp47
a(I2912
I755
tp48
a(I14
I67
tp49
a(I1196
I-10
tp50
a(I2236
I755
tp51
a(I2425
I72
tp52
a(I2964
I755
tp53
a(I149
I180
tp54
a(I2236
I-8
tp55
a(I0
I-8
tp56
a(I0
I754
tp57
a(I2808
I754
tp58
a(I2756
I-8
tp59
a(I1716
I-8
tp60
a(I2725
I413
tp61
a(I2781
I413
tp62
a(I780
I-8
tp63
a(I520
I-8
tp64
a(I728
I-10
tp65
a(I193
I180
tp66
a(I1924
I754
tp67
a(I1872
I754
tp68
a(I2860
I-8
tp69
a(I676
I755
tp70
a(I2982
I298
tp71
a(I988
I-8
tp72
a(I1144
I754
tp73
a(I624
I-8
tp74
a(I2080
I754
tp75
a(I2923
I187
tp76
a(I1031
I410
tp77
a(I2236
I755
tp78
a(I2503
I298
tp79
a(I208
I755
tp80
a(I1352
I-8
tp81
a(I2444
I755
tp82
a(I624
I-8
tp83
a(I2808
I754
tp84
a(I0
I-10
tp85
a(I2860
I-10
tp86
a(I1560
I755
tp87
a(I1456
I-10
tp88
a(I2349
I298
tp89
a(I711
I67
tp90
a(I2290
I413
tp91
a(I2340
I754
tp92
a(I2808
I754
tp93
a(I2837
I647
tp94
a(I260
I-8
tp95
a(I624
I-8
tp96
a(I590
I67
tp97
a(I2912
I-8
tp98
a(I-170
I201
tp99
a(I52
I-8
tp100
a(I1057
I646
tp101
a(I170
I410
tp102
a(I998
I186
tp103
a(I1560
I755
tp104
a(I2444
I-8
tp105
a(I104
I-8
tp106
a(I2600
I-8
tp107
a(I0
I-8
tp108
a(I520
I755
tp109
a(I728
I-8
tp110
a(I468
I755
tp111
a(I1763
I647
tp112
a(I572
I-8
tp113
a(I965
I646
tp114
a(I1820
I-8
tp115
a(I1768
I754
tp116
a(I2184
I-8
tp117
a(I1967
I647
tp118
a(I1404
I754
tp119
a(I987
I410
tp120
a(I2600
I755
tp121
a(I1976
I754
tp122
a(I2731
I524
tp123
a(I52
I754
tp124
a(I1664
I-8
tp125
a(I2926
I413
tp126
a(I2611
I298
tp127
a(I1836
I411
tp128
a(I1716
I-8
tp129
a(I156
I-8
tp130
a(I2600
I-8
tp131
a(I2955
I298
tp132
a(I520
I754
tp133
a(I1872
I-10
tp134
a(I520
I755
tp135
a(I1877
I75
tp136
a(I1164
I297
tp137
a(I104
I-10
tp138
a(I1768
I755
tp139
a(I780
I-8
tp140
a(I877
I297
tp141
a(I1508
I-8
tp142
a(I1716
I754
tp143
a(I1951
I298
tp144
a(I2912
I-8
tp145
a(I468
I-10
tp146
a(I104
I-8
tp147
a(I2548
I-8
tp148
a(I312
I754
tp149
a(I2760
I647
tp150
a(I1092
I755
tp151
a(I1612
I-10
tp152
a(I2652
I754
tp153
a(I2028
I754
tp154
a(I520
I-8
tp155
a(I2444
I754
tp156
a(I2392
I-8
tp157
a(I728
I754
tp158
a(I1380
I646
tp159
a(I1716
I-10
tp160
a(I624
I755
tp161
a(I1768
I754
tp162
a(I1820
I754
tp163
a(I1976
I190
tp164
a(I2132
I754
tp165
a(I988
I-8
tp166
a(I104
I-8
tp167
a(I2756
I-8
tp168
a(I1872
I755
tp169
a(I518
I67
tp170
a(I2600
I754
tp171
a(I572
I-8
tp172
a(I1643
I298
tp173
a(I676
I-8
tp174
a(I1416
I297
tp175
a(I1664
I754
tp176
a(I1716
I-8
tp177
a(I2406
I72
tp178
a(I761
I68
tp179
a(I1967
I298
tp180
a(I2704
I-8
tp181
a(I52
I754
tp182
a(I2600
I-10
tp183
a(I1992
I411
tp184
a(I1352
I-8
tp185
a(I1716
I-8
tp186
a(I728
I-8
tp187
a(I1318
I297
tp188
a(I1092
I754
tp189
a(I728
I-10
tp190
a(I104
I-8
tp191
a(I1612
I-8
tp192
a(I1716
I754
tp193
a(I2236
I754
tp194
a(I321
I180
tp195
a(I1708
I75
tp196
a(I2080
I-8
tp197
a(I2964
I755
tp198
a(I1248
I-8
tp199
a(I2079
I524
tp200
a(I520
I-8
tp201
a(I468
I-8
tp202
a(I1924
I754
tp203
a(I1564
I646
tp204
a(I1040
I754
tp205
a(I1458
I187
tp206
a(I468
I-8
tp207
a(I1962
I524
tp208
a(I2288
I-10
tp209
a(I2080
I754
tp210
a(I2595
I647
tp211
a(I1746
I647
tp212
a(I2600
I754
tp213
a(I2666
I72
tp214
a(I2548
I-8
tp215
a(I2860
I754
tp216
a(I2036
I298
tp217
a(I728
I754
tp218
a(I728
I754
tp219
a(I2531
I524
tp220
a(I1286
I297
tp221
a(I2704
I755
tp222
a(I1716
I-8
tp223
a(I156
I754
tp224
a(I1596
I410
tp225
a(I1508
I-10
tp226
a(I1185
I524
tp227
a(I156
I754
tp228
a(I1820
I-10
tp229
a(I2026
I298
tp230
a(I468
I754
tp231
a(I2444
I-8
tp232
a(I2548
I-8
tp233
a(I1976
I754
tp234
a(I2652
I-10
tp235
a(I1248
I-8
tp236
a(I1040
I755
tp237
a(I2704
I754
tp238
a(I1120
I186
tp239
a(I416
I-8
tp240
a(I2236
I-8
tp241
a(I0
I755
tp242
a(I884
I754
tp243
a(I0
I754
tp244
a(I104
I754
tp245
a(I572
I754
tp246
a(I1508
I754
tp247
a(I1404
I754
tp248
a(I2392
I755
tp249
a(I1924
I-8
tp250
a(I2366
I647
tp251
a(I1768
I754
tp252
a(I2236
I754
tp253
a(I624
I754
tp254
a(I260
I754
tp255
a(I988
I-8
tp256
a(I618
I296
tp257
a(I536
I410
tp258
a(I832
I754
tp259
a(I1924
I-8
tp260
a(I2769
I298
tp261
a(I624
I754
tp262
a(I1196
I-8
tp263
a(I936
I-10
tp264
a(I2496
I754
tp265
a(I1196
I-10
tp266
a(I624
I-8
tp267
a(I1664
I-8
tp268
a(I1831
I524
tp269
a(I2080
I-8
tp270
a(I2808
I755
tp271
a(I1646
I189
tp272
a(I936
I-8
tp273
a(I1248
I755
tp274
a(I1396
I410
tp275
a(I572
I754
tp276
a(I1470
I646
tp277
a(I1976
I-10
tp278
a(I2288
I754
tp279
a(I2340
I-10
tp280
a(I1196
I754
tp281
a(I1092
I755
tp282
a(I1404
I-8
tp283
a(I1924
I-8
tp284
a(I2028
I-10
tp285
a(I1081
I646
tp286
a(I2652
I-8
tp287
a(I208
I-8
tp288
a(I0
I-8
tp289
a(I2583
I186
tp290
a(I936
I754
tp291
a(I364
I754
tp292
a(I2288
I-10
tp293
a(I1144
I754
tp294
a(I1456
I-8
tp295
a(I1976
I-8
tp296
a(I0
I754
tp297
a(I2928
I647
tp298
a(I1352
I754
tp299
a(I2860
I-8
tp300
a(I468
I-8
tp301
a(I1248
I754
tp302
a(I1739
I411
tp303
a(I1352
I-8
tp304
a(I2756
I754
tp305
a(I520
I755
tp306
a(I519
I296
tp307
a(I676
I-10
tp308
a(I156
I754
tp309
a(I414
I180
tp310
a(I2548
I755
tp311
a(I2704
I-8
tp312
a(I1552
I297
tp313
a(I1664
I754
tp314
a(I1976
I754
tp315
a(I1248
I754
tp316
a(I2064
I75
tp317
a(I1040
I-8
tp318
a(I2964
I-8
tp319
a(I1513
I410
tp320
a(I312
I-8
tp321
a(I2548
I754
tp322
a(I2964
I754
tp323
a(I1144
I754
tp324
a(I208
I-10
tp325
a(I1872
I754
tp326
a(I1172
I524
tp327
a(I2028
I-8
tp328
a(I676
I754
tp329
a(I2340
I-8
tp330
a(I468
I-8
tp331
a(I2244
I413
tp332
a(I1612
I755
tp333
a(I520
I-8
tp334
a(I698
I410
tp335
a(I272
I180
tp336
a(I1508
I754
tp337
a(I1924
I755
tp338
a(I1976
I-8
tp339
a(I2444
I754
tp340
a(I2
I296
tp341
a(I2808
I-8
tp342
a(I1092
I754
tp343
a(I1560
I-10
tp344
a(I2860
I754
tp345
a(I1300
I-8
tp346
a(I1768
I754
tp347
a(I104
I-8
tp348
a(I832
I-8
tp349
a(I1183
I187
tp350
a(I1300
I-8
tp351
a(I2009
I647
tp352
a(I2481
I413
tp353
a(I884
I755
tp354
a(I832
I754
tp355
a(I1896
I191
tp356
a(I572
I-8
tp357
a(I1196
I754
tp358
a(I1976
I-8
tp359
a(I1872
I-8
tp360
a(I832
I754
tp361
a(I572
I-10
tp362
a(I1248
I754
tp363
a(I2184
I754
tp364
a(I1597
I189
tp365
a(I520
I754
tp366
a(I18
I180
tp367
a(I2912
I-10
tp368
a(I1612
I-8
tp369
a(I1196
I755
tp370
a(I2288
I-8
tp371
a(I2431
I413
tp372
a(I2862
I186
tp373
a(I2080
I755
tp374
a(I1144
I754
tp375
a(I884
I754
tp376
a(I1976
I-8
tp377
a(I1508
I754
tp378
a(I2600
I-8
tp379
a(I1768
I-8
tp380
a(I1768
I754
tp381
a(I1976
I-8
tp382
a(I28
I526
tp383
a(I1812
I75
tp384
a(I1352
I-8
tp385
a(I416
I754
tp386
a(I1118
I410
tp387
a(I1456
I-8
tp388
a(I2496
I755
tp389
a(I1248
I-8
tp390
a(I2028
I754
tp391
a(I2184
I754
tp392
a(I1716
I-10
tp393
a(I1299
I646
tp394
a(I1009
I646
tp395
a(I988
I-8
tp396
a(I2125
I298
tp397
a(I2964
I-10
tp398
a(I1820
I-8
tp399
a(I1976
I-8
tp400
a(I364
I-8
tp401
a(I2592
I524
tp402
a(I2756
I754
tp403
a(I2184
I-8
tp404
a(I1602
I524
tp405
a(I2206
I647
tp406
a(I1040
I-10
tp407
a(I2288
I-8
tp408
a(I1768
I-8
tp409
a(I2756
I754
tp410
a(I2080
I-8
tp411
a(I2080
I755
tp412
a(I1612
I754
tp413
a(I1976
I-10
tp414
a(I1352
I754
tp415
a(I2444
I-8
tp416
a(I2912
I-8
tp417
a(I780
I-8
tp418
a(I1872
I-8
tp419
a(I260
I755
tp420
a(I1506
I297
tp421
a(I2080
I754
tp422
a(I1404
I-8
tp423
a(I676
I754
tp424
a(I624
I754
tp425
a(I2740
I186
tp426
a(I1508
I754
tp427
a(I2444
I-8
tp428
a(I1456
I754
tp429
a(I832
I-8
tp430
a(I1352
I754
tp431
a(I468
I-8
tp432
a(I572
I-8
tp433
a(I2444
I-10
tp434
a(I296
I410
tp435
a(I1456
I754
tp436
a(I1850
I647
tp437
a(I1925
I75
tp438
a(I2132
I754
tp439
a(I2814
I524
tp440
a(I2858
I298
tp441
a(I2548
I-8
tp442
a(I1144
I755
tp443
a(I2080
I-8
tp444
a(I1092
I754
tp445
a(I1040
I-8
tp446
a(I2236
I754
tp447
a(I1924
I754
tp448
a(I2652
I-8
tp449
a(I52
I754
tp450
a(I468
I754
tp451
a(I468
I-8
tp452
a(I1664
I755
tp453
a(I936
I-8
tp454
a(I52
I755
tp455
a(I2028
I-8
tp456
a(I1456
I-8
tp457
a(I2808
I-8
tp458
a(I416
I-10
tp459
a(I2548
I755
tp460
a(I2600
I-10
tp461
a(I128
I410
tp462
a(I1976
I754
tp463
a(I1924
I-10
tp464
a(I156
I-10
tp465
a(I2808
I754
tp466
a(I260
I-10
tp467
a(I2184
I754
tp468
a(I790
I69
tp469
a(I2028
I754
tp470
a(I1820
I-8
tp471
a(I1248
I754
tp472
a(I1040
I-8
tp473
a(I260
I-8
tp474
a(I676
I754
tp475
a(I1560
I-8
tp476
a(I2444
I-8
tp477
a(I1560
I754
tp478
a(I1664
I754
tp479
a(I2288
I754
tp480
a(I884
I754
tp481
a(I2704
I-10
tp482
a(I1508
I755
tp483
a(I988
I755
tp484
a(I208
I754
tp485
a(I1924
I755
tp486
a(I104
I-8
tp487
a(I1872
I-8
tp488
a(I2080
I-8
tp489
a(I520
I-10
tp490
a(I1664
I755
tp491
a(I2080
I-8
tp492
a(I2028
I754
tp493
a(I1872
I755
tp494
a(I624
I755
tp495
a(I1219
I187
tp496
a(I832
I755
tp497
a(I728
I-8
tp498
a(I2496
I754
tp499
a(I728
I754
tp500
a(I2860
I-8
tp501
a(I1763
I411
tp502
a(I2485
I72
tp503
a(I624
I-8
tp504
a(I156
I754
tp505
a(I156
I-8
tp506
a(I2028
I-8
tp507
a(I52
I-8
tp508
a(I624
I-8
tp509
a(I468
I754
tp510
a(I676
I67
tp511
a(I988
I755
tp512
a(I260
I754
tp513
a(I2041
I75
tp514
a(I2548
I-8
tp515
a(I2132
I755
tp516
a(I150
I296
tp517
a(I1560
I754
tp518
a(I832
I754
tp519
a(I1092
I755
tp520
a(I364
I-8
tp521
a(I2756
I755
tp522
a(I988
I754
tp523
a(I1716
I755
tp524
a(I2496
I-8
tp525
a(I780
I754
tp526
a(I2964
I754
tp527
a(I2340
I-8
tp528
a(I364
I754
tp529
a(I1399
I187
tp530
a(I2808
I-10
tp531
a(I2912
I754
tp532
a(I416
I754
tp533
a(I1924
I754
tp534
a(I1664
I-10
tp535
a(I2080
I-10
tp536
a(I2808
I754
tp537
a(I2444
I754
tp538
a(I2652
I754
tp539
a(I364
I-8
tp540
a(I988
I-8
tp541
a(I2290
I647
tp542
a(I2752
I413
tp543
a(I2392
I754
tp544
a(I2531
I72
tp545
a(I52
I755
tp546
a(I1447
I297
tp547
a(I572
I754
tp548
a(I2340
I754
tp549
a(I2912
I-8
tp550
a(I1352
I754
tp551
a(I2199
I190
tp552
a(I1976
I-8
tp553
a(I638
I410
tp554
a(I2444
I-8
tp555
a(I312
I-10
tp556
a(I366
I296
tp557
a(I2625
I72
tp558
a(I1144
I-8
tp559
a(I1456
I755
tp560
a(I2326
I298
tp561
a(I1404
I755
tp562
a(I2756
I754
tp563
a(I1840
I75
tp564
a(I2184
I754
tp565
a(I2860
I-10
tp566
a(I2503
I72
tp567
a(I2912
I-10
tp568
a(I416
I754
tp569
a(I2028
I-10
tp570
a(I468
I755
tp571
a(I2860
I754
tp572
a(I1612
I-10
tp573
a(I2100
I298
tp574
a(I2652
I754
tp575
a(I52
I-8
tp576
a(I1300
I754
tp577
a(I2017
I411
tp578
a(I656
I296
tp579
a(I2860
I-8
tp580
a(I624
I754
tp581
a(I1820
I-8
tp582
a(I2734
I647
tp583
a(I1352
I-10
tp584
a(I2652
I-8
tp585
a(I2080
I-10
tp586
a(I1248
I754
tp587
a(I1716
I754
tp588
a(I2132
I-8
tp589
a(I2600
I755
tp590
a(I2704
I-8
tp591
a(I2340
I-8
tp592
a(I52
I-10
tp593
a(I1924
I-8
tp594
a(I1092
I-8
tp595
a(I988
I754
tp596
a(I2104
I412
tp597
a(I1540
I524
tp598
a(I2964
I-8
tp599
a(I2294
I524
tp600
a(I1144
I-8
tp601
a(I2028
I755
tp602
a(I312
I-8
tp603
a(I2548
I-10
tp604
a(I1352
I754
tp605
a(I884
I-8
tp606
a(I2600
I754
tp607
a(I2600
I754
tp608
a(I1508
I-10
tp609
a(I1352
I755
tp610
a(I1040
I-8
tp611
a(I2132
I-10
tp612
a(I2132
I754
tp613
a(I364
I-8
tp614
a(I1144
I754
tp615
a(I104
I-10
tp616
a(I2808
I-10
tp617
a(I2698
I413
tp618
a(I1358
I297
tp619
a(I728
I-10
tp620
a(I2496
I754
tp621
a(I2340
I754
tp622
a(I520
I754
tp623
a(I1091
I186
tp624
a(I2355
I413
tp625
a(I832
I186
tp626
a(I731
I410
tp627
a(I2815
I73
tp628
a(I52
I-10
tp629
a(I1546
I646
tp630
a(I0
I754
tp631
a(I1388
I297
tp632
a(I468
I296
tp633
a(I34
I639
tp634
a(I260
I755
tp635
a(I2184
I755
tp636
a(I2163
I524
tp637
a(I1404
I-10
tp638
a(I2184
I-10
tp639
a(I2036
I524
tp640
a(I572
I754
tp641
a(I1612
I-8
tp642
a(I2496
I755
tp643
a(I780
I-8
tp644
a(I1560
I754
tp645
a(I312
I-10
tp646
a(I1352
I-8
tp647
a(I2964
I754
tp648
a(I2430
I524
tp649
a(I2392
I-8
tp650
a(I832
I-8
tp651
a(I875
I410
tp652
a(I2081
I190
tp653
a(I1976
I755
tp654
a(I52
I754
tp655
a(I2028
I754
tp656
a(I1300
I754
tp657
a(I1196
I-8
tp658
a(I520
I-10
tp659
a(I1593
I74
tp660
a(I1560
I-8
tp661
a(I2860
I755
tp662
a(I130
I639
tp663
a(I2251
I298
tp664
a(I2912
I-8
tp665
a(I2652
I-10
tp666
a(I2496
I-8
tp667
a(I2008
I411
tp668
a(I1393
I71
tp669
a(I2794
I298
tp670
a(I2860
I754
tp671
a(I1820
I-8
tp672
a(I1612
I-10
tp673
a(I780
I-10
tp674
a(I728
I754
tp675
a(I1353
I524
tp676
a(I260
I-10
tp677
a(I364
I755
tp678
a(I2756
I-10
tp679
a(I884
I-8
tp680
a(I2288
I754
tp681
a(I1248
I646
tp682
a(I1560
I-8
tp683
a(I364
I-10
tp684
a(I2236
I754
tp685
a(I2236
I-10
tp686
a(I2704
I755
tp687
a(I780
I-8
tp688
a(I113
I180
tp689
a(I2756
I755
tp690
a(I1129
I297
tp691
a(I208
I-8
tp692
a(I2457
I72
tp693
a(I936
I754
tp694
a(I1768
I-8
tp695
a(I0
I-10
tp696
a(I1612
I-8
tp697
a(I208
I-8
tp698
a(I2964
I755
tp699
a(I0
I-8
tp700
a(I2501
I524
tp701
a(I2577
I413
tp702
a(I1040
I-8
tp703
a(I1404
I754
tp704
a(I2548
I-10
tp705
a(I2440
I298
tp706
a(I1888
I647
tp707
a(I2704
I-8
tp708
a(I572
I755
tp709
a(I1812
I411
tp710
a(I2184
I755
tp711
a(I52
I755
tp712
a(I2496
I-8
tp713
a(I312
I754
tp714
a(I624
I-10
tp715
a(I1092
I754
tp716
a(I1612
I-8
tp717
a(I1664
I754
tp718
a(I2975
I524
tp719
a(I104
I-8
tp720
a(I2704
I-10
tp721
a(I156
I755
tp722
a(I2964
I754
tp723
a(I1475
I410
tp724
a(I364
I754
tp725
a(I1248
I754
tp726
a(I2843
I413
tp727
a(I2080
I-8
tp728
a(I1404
I-8
tp729
a(I572
I755
tp730
a(I156
I-10
tp731
a(I1244
I297
tp732
a(I2860
I754
tp733
a(I2444
I754
tp734
a(I468
I754
tp735
a(I1672
I524
tp736
a(I1248
I754
tp737
a(I1040
I754
tp738
a(I197
I296
tp739
a(I416
I-8
tp740
a(I572
I-10
tp741
a(I156
I754
tp742
a(I780
I-10
tp743
a(I1300
I-8
tp744
a(I1716
I754
tp745
a(I1196
I754
tp746
a(I2704
I-8
tp747
a(I832
I754
tp748
a(I1456
I-8
tp749
a(I2080
I-10
tp750
a(I416
I755
tp751
a(I572
I-10
tp752
a(I2600
I-8
tp753
a(I2340
I754
tp754
a(I1560
I-8
tp755
a(I312
I-10
tp756
a(I2901
I413
tp757
a(I0
I754
tp758
a(I2288
I-8
tp759
a(I208
I754
tp760
a(I1716
I754
tp761
a(I572
I-8
tp762
a(I2914
I298
tp763
a(I1664
I-10
tp764
a(I780
I754
tp765
a(I884
I-10
tp766
a(I1426
I187
tp767
a(I832
I-10
tp768
a(I416
I-10
tp769
a(I2392
I754
tp770
a(I1976
I754
tp771
a(I1820
I755
tp772
a(I1716
I754
tp773
a(I1456
I754
tp774
a(I2958
I187
tp775
a(I2444
I-10
tp776
a(I1040
I755
tp777
a(I1794
I524
tp778
a(I1096
I297
tp779
a(I1196
I754
tp780
a(I2968
I647
tp781
a(I2600
I-8
tp782
a(I2496
I754
tp783
a(I267
I410
tp784
a(I1196
I754
tp785
a(I1631
I646
tp786
a(I1976
I754
tp787
a(I1612
I-8
tp788
a(I2184
I-8
tp789
a(I913
I297
tp790
a(I832
I-8
tp791
a(I1508
I755
tp792
a(I0
I-10
tp793
a(I1942
I411
tp794
a(I1300
I754
tp795
a(I1872
I-8
tp796
a(I1595
I646
tp797
a(I815
I410
tp798
a(I2985
I647
tp799
a(I312
I754
tp800
a(I2132
I754
tp801
a(I1872
I754
tp802
a(I1865
I411
tp803
a(I2236
I754
tp804
a(I1560
I-10
tp805
a(I936
I-8
tp806
a(I2704
I-10
tp807
a(I988
I-8
tp808
a(I312
I755
tp809
a(I1976
I755
tp810
a(I1664
I754
tp811
a(I2912
I754
tp812
a(I2369
I524
tp813
a(I208
I755
tp814
a(I1768
I754
tp815
a(I0
I754
tp816
a(I1543
I410
tp817
a(I2889
I524
tp818
a(I1612
I-8
tp819
a(I988
I754
tp820
a(I1716
I-10
tp821
a(I319
I296
tp822
a(I2790
I647
tp823
a(I2288
I754
tp824
a(I2444
I755
tp825
a(I2912
I755
tp826
a(I1716
I754
tp827
a(I1196
I-10
tp828
a(I893
I186
tp829
a(I1144
I-10
tp830
a(I2184
I754
tp831
a(I367
I67
tp832
a(I1248
I-8
tp833
a(I624
I-8
tp834
a(I2570
I298
tp835
a(I2964
I754
tp836
a(I2860
I754
tp837
a(I728
I-8
tp838
a(I1933
I647
tp839
a(I1705
I298
tp840
a(I676
I-8
tp841
a(I2674
I186
tp842
a(I2912
I-8
tp843
a(I2028
I755
tp844
a(I364
I-8
tp845
a(I884
I754
tp846
a(I1092
I754
tp847
a(I1560
I-8
tp848
a(I2407
I413
tp849
a(I1490
I524
tp850
a(I572
I-8
tp851
a(I2673
I647
tp852
a(I2560
I647
tp853
a(I2392
I755
tp854
a(I676
I-8
tp855
a(I1196
I-8
tp856
a(I672
I410
tp857
a(I1612
I755
tp858
a(I2756
I-8
tp859
a(I2132
I754
tp860
a(I1704
I190
tp861
a(I695
I296
tp862
a(I2918
I524
tp863
a(I416
I-8
tp864
a(I2075
I298
tp865
a(I2392
I-8
tp866
a(I1857
I191
tp867
a(I1404
I754
tp868
a(I936
I-8
tp869
a(I1404
I-8
tp870
a(I2496
I-8
tp871
a(I1664
I754
tp872
a(I2340
I-8
tp873
a(I2236
I-8
tp874
a(I1092
I-8
tp875
a(I1872
I754
tp876
a(I468
I-8
tp877
a(I2912
I-10
tp878
a(I858
I186
tp879
a(I832
I754
tp880
a(I52
I754
tp881
a(I2496
I-8
tp882
a(I1976
I-10
tp883
a(I1214
I297
tp884
a(I2184
I-8
tp885
a(I1248
I-10
tp886
a(I2652
I-8
tp887
a(I2444
I-8
tp888
a(I2383
I413
tp889
a(I1508
I-8
tp890
a(I2651
I647
tp891
a(I1872
I-8
tp892
a(I832
I755
tp893
a(I2392
I-10
tp894
a(I624
I754
tp895
a(I2168
I298
tp896
a(I468
I755
tp897
a(I1248
I-8
tp898
a(I104
I754
tp899
a(I2743
I298
tp900
a(I1924
I-8
tp901
a(I1924
I-8
tp902
a(I2942
I187
tp903
a(I1976
I755
tp904
a(I884
I754
tp905
a(I312
I67
tp906
a(I2825
I298
tp907
a(I1508
I-8
tp908
a(I260
I-10
tp909
a(I936
I-8
tp910
a(I1281
I410
tp911
a(I260
I-8
tp912
a(I2444
I754
tp913
a(I2080
I-8
tp914
a(I2340
I-8
tp915
a(I2711
I298
tp916
a(I884
I755
tp917
a(I1144
I-8
tp918
a(I1560
I754
tp919
a(I2600
I754
tp920
a(I2600
I755
tp921
a(I1092
I-8
tp922
a(I2091
I75
tp923
a(I1612
I-8
tp924
a(I1103
I646
tp925
a(I884
I754
tp926
a(I260
I-8
tp927
a(I260
I-8
tp928
a(I936
I-8
tp929
a(I2341
I524
tp930
a(I2392
I754
tp931
a(I2023
I190
tp932
a(I2496
I-10
tp933
a(I1560
I-8
tp934
a(I1040
I754
tp935
a(I1664
I-8
tp936
a(I936
I754
tp937
a(I1778
I190
tp938
a(I208
I755
tp939
a(I2757
I524
tp940
a(I312
I-8
tp941
a(I2808
I-10
tp942
a(I2756
I755
tp943
a(I2132
I-8
tp944
a(I2848
I73
tp945
a(I2392
I754
tp946
a(I1040
I-8
tp947
a(I52
I-8
tp948
a(I468
I754
tp949
a(I2964
I-8
tp950
a(I1612
I754
tp951
a(I1300
I755
tp952
a(I416
I-10
tp953
a(I2080
I755
tp954
a(I2562
I524
tp955
a(I2392
I-8
tp956
a(I984
I186
tp957
a(I487
I67
tp958
a(I520
I-10
tp959
a(I1352
I-10
tp960
a(I73
I67
tp961
a(I1196
I755
tp962
a(I1508
I-8
tp963
a(I1196
I-8
tp964
a(I1040
I-10
tp965
a(I364
I754
tp966
a(I2236
I755
tp967
a(I939
I410
tp968
a(I743
I185
tp969
a(I416
I755
tp970
a(I1560
I754
tp971
a(I2964
I-8
tp972
a(I156
I-8
tp973
a(I2265
I524
tp974
a(I2340
I754
tp975
a(I728
I-8
tp976
a(I988
I-10
tp977
a(I1526
I646
tp978
a(I1456
I754
tp979
a(I213
I67
tp980
a(I156
I755
tp981
a(I2132
I754
tp982
a(I2109
I190
tp983
a(I82
I296
tp984
a(I1820
I754
tp985
a(I596
I410
tp986
a(I728
I-8
tp987
a(I949
I297
tp988
a(I2808
I754
tp989
a(I2639
I186
tp990
a(I2496
I755
tp991
a(I884
I-8
tp992
a(I104
I754
tp993
a(I1300
I-10
tp994
a(I1818
I298
tp995
a(I1300
I-8
tp996
a(I2704
I754
tp997
a(I2756
I-10
tp998
a(I1924
I754
tp999
a(I2704
I754
tp1000
a(I1196
I-8
tp1001
a(I1404
I-8
tp1002
a(I2496
I754
tp1003
a(I2543
I298
tp1004
a(I2912
I755
tp1005
a(I1233
I410
tp1006
a(I1300
I755
tp1007
a(I2913
I73
tp1008
a(I391
I67
tp1009
a(I1092
I-8
tp1010
a(I1040
I754
tp1011
a(I520
I-8
tp1012
a(I104
I754
tp1013
a(I1300
I754
tp1014
a(I1820
I754
tp1015
a(I1704
I411
tp1016
a(I2184
I-8
tp1017
a(I2288
I-8
tp1018
a(I988
I-10
tp1019
a(I468
I754
tp1020
a(I676
I-8
tp1021
a(I1872
I754
tp1022
a(I2704
I-8
tp1023
a(I2132
I-8
tp1024
a(I728
I754
tp1025
a(I2548
I754
tp1026
a(I1456
I-8
tp1027
a(I2964
I-10
tp1028
a(I2028
I-8
tp1029
a(I1404
I-8
tp1030
a(I1196
I755
tp1031
a(I1352
I-8
tp1032
a(I2053
I412
tp1033
a(I2444
I754
tp1034
a(I2080
I754
tp1035
a(I2652
I755
tp1036
a(I2964
I-8
tp1037
a(I1317
I524
tp1038
a(I1404
I-10
tp1039
a(I2756
I-8
tp1040
a(I780
I754
tp1041
a(I2756
I-8
tp1042
a(I2132
I754
tp1043
a(I2184
I754
tp1044
a(I676
I754
tp1045
a(I1189
I410
tp1046
a(I936
I754
tp1047
a(I728
I-8
tp1048
a(I1703
I647
tp1049
a(I1073
I410
tp1050
a(I2768
I186
tp1051
a(I2392
I754
tp1052
a(I2808
I754
tp1053
a(I1924
I-10
tp1054
a(I846
I410
tp1055
a(I2288
I755
tp1056
a(I2219
I76
tp1057
a(I988
I-10
tp1058
a(I2756
I754
tp1059
a(I1196
I754
tp1060
a(I520
I-8
tp1061
a(I884
I-10
tp1062
a(I2236
I-10
tp1063
a(I1439
I410
tp1064
a(I461
I410
tp1065
a(I1768
I-10
tp1066
a(I1768
I-8
tp1067
a(I1664
I754
tp1068
a(I2912
I-8
tp1069
a(I1872
I-8
tp1070
a(I1300
I754
tp1071
a(I2985
I73
tp1072
a(I2236
I754
tp1073
a(I1248
I-10
tp1074
a(I1144
I-8
tp1075
a(I2236
I-8
tp1076
a(I1040
I755
tp1077
a(I364
I-8
tp1078
a(I1560
I754
tp1079
a(I562
I410
tp1080
a(I1820
I754
tp1081
a(I109
I67
tp1082
a(I2600
I754
tp1083
a(I1144
I-8
tp1084
a(I1300
I-8
tp1085
a(I1340
I187
tp1086
a(I572
I-8
tp1087
a(I2652
I-10
tp1088
a(I884
I754
tp1089
a(I312
I754
tp1090
a(I0
I755
tp1091
a(I364
I754
tp1092
a(I624
I754
tp1093
a(I1508
I-10
tp1094
a(I1196
I-8
tp1095
a(I1664
I-10
tp1096
a(I2704
I754
tp1097
a(I1248
I754
tp1098
a(I104
I-10
tp1099
a(I1048
I297
tp1100
a(I1665
I647
tp1101
a(I884
I-10
tp1102
a(I42
I67
tp1103
a(I1456
I754
tp1104
a(I832
I-8
tp1105
a(I1144
I-8
tp1106
a(I52
I-10
tp1107
a(I936
I-8
tp1108
a(I1664
I-8
tp1109
a(I1845
I524
tp1110
a(I2643
I298
tp1111
a(I1793
I298
tp1112
a(I2548
I-8
tp1113
a(I936
I755
tp1114
a(I2796
I186
tp1115
a(I208
I754
tp1116
a(I1901
I298
tp1117
a(I2166
I647
tp1118
a(I2340
I-8
tp1119
a(I1496
I646
tp1120
a(I2756
I-10
tp1121
a(I832
I-8
tp1122
a(I936
I754
tp1123
a(I2638
I413
tp1124
a(I468
I-8
tp1125
a(I364
I-8
tp1126
a(I118
I296
tp1127
a(I780
I755
tp1128
a(I2964
I-8
tp1129
a(I728
I755
tp1130
a(I884
I-8
tp1131
a(I780
I754
tp1132
a(I1367
I71
tp1133
a(I312
I-8
tp1134
a(I2080
I754
tp1135
a(I1902
I75
tp1136
a(I988
I-8
tp1137
a(I2288
I-8
tp1138
a(I1367
I187
tp1139
a(I208
I-8
tp1140
a(I2236
I-8
tp1141
a(I676
I754
tp1142
a(I1816
I190
tp1143
a(I988
I755
tp1144
a(I936
I-10
tp1145
a(I1121
I646
tp1146
a(I208
I754
tp1147
a(I2860
I-10
tp1148
a(I364
I-10
tp1149
a(I2912
I754
tp1150
a(I1158
I410
tp1151
a(I2063
I412
tp1152
a(I270
I296
tp1153
a(I936
I754
tp1154
a(I1872
I-10
tp1155
a(I1639
I74
tp1156
a(I211
I410
tp1157
a(I1404
I754
tp1158
a(I624
I754
tp1159
a(I572
I754
tp1160
a(I1612
I754
tp1161
a(I735
I68
tp1162
a(I208
I-8
tp1163
a(I1311
I410
tp1164
a(I520
I754
tp1165
a(I1456
I-8
tp1166
a(I1820
I755
tp1167
a(I1560
I-8
tp1168
a(I1976
I754
tp1169
a(I1820
I755
tp1170
a(I1040
I-8
tp1171
a(I1767
I298
tp1172
a(I2266
I190
tp1173
a(I52
I754
tp1174
a(I1820
I-10
tp1175
a(I2340
I754
tp1176
a(I2236
I-10
tp1177
a(I2184
I755
tp1178
a(I1092
I-10
tp1179
a(I780
I754
tp1180
a(I1300
I-10
tp1181
a(I2860
I-8
tp1182
a(I1613
I410
tp1183
a(I2912
I754
tp1184
a(I1768
I-10
tp1185
a(I908
I410
tp1186
a(I2394
I647
tp1187
a(I2860
I755
tp1188
a(I312
I754
tp1189
a(I104
I754
tp1190
a(I2123
I524
tp1191
a(I2028
I-8
tp1192
a(I2600
I-8
tp1193
a(I2513
I647
tp1194
a(I884
I-8
tp1195
a(I1144
I-8
tp1196
a(I1560
I755
tp1197
a(I1144
I-10
tp1198
a(I780
I-10
tp1199
a(I520
I754
tp1200
a(I618
I67
tp1201
a(I1296
I187
tp1202
a(I156
I754
tp1203
a(I2028
I-8
tp1204
a(I111
I410
tp1205
a(I2028
I754
tp1206
a(I728
I755
tp1207
a(I884
I755
tp1208
a(I1872
I754
tp1209
a(I1820
I-8
tp1210
a(I83
I639
tp1211
a(I312
I755
tp1212
a(I2912
I754
tp1213
a(I2288
I-10
tp1214
a(I0
I754
tp1215
a(I2080
I754
tp1216
a(I312
I754
tp1217
a(I312
I754
tp1218
a(I2704
I754
tp1219
a(I2132
I-8
tp1220
a(I2699
I72
tp1221
a(I1820
I-8
tp1222
a(I2087
I647
tp1223
a(I2340
I-10
tp1224
a(I2940
I73
tp1225
a(I10
I410
tp1226
a(I1508
I755
tp1227
a(I2652
I754
tp1228
a(I1284
I524
tp1229
a(I468
I-10
tp1230
a(I156
I754
tp1231
a(I1040
I754
tp1232
a(I156
I-8
tp1233
a(I326
I410
tp1234
a(I2609
I186
tp1235
a(I2954
I413
tp1236
a(I770
I410
tp1237
a(I2288
I-8
tp1238
a(I2652
I-8
tp1239
a(I2548
I754
tp1240
a(I2548
I-8
tp1241
a(I2288
I754
tp1242
a(I928
I186
tp1243
a(I104
I754
tp1244
a(I1384
I524
tp1245
a(I1144
I755
tp1246
a(I0
I754
tp1247
a(I1404
I755
tp1248
a(I2433
I647
tp1249
a(I1092
I754
tp1250
a(I0
I755
tp1251
a(I936
I755
tp1252
a(I676
I755
tp1253
a(I156
I-8
tp1254
a(I1144
I754
tp1255
a(I1976
I754
tp1256
a(I1768
I754
tp1257
a(I1560
I754
tp1258
a(I2005
I298
tp1259
a(I1092
I-8
tp1260
a(I884
I754
tp1261
a(I2406
I298
tp1262
a(I2548
I-10
tp1263
a(I676
I754
tp1264
a(I1508
I754
tp1265
a(I1716
I-8
tp1266
a(I1248
I-8
tp1267
a(I1664
I-8
tp1268
a(I2168
I190
tp1269
a(I2860
I-8
tp1270
a(I2288
I754
tp1271
a(I1456
I754
tp1272
a(I2808
I-8
tp1273
a(I1456
I754
tp1274
a(I520
I754
tp1275
a(I2288
I755
tp1276
a(I2444
I-8
tp1277
a(I1300
I-8
tp1278
a(I2860
I755
tp1279
a(I1508
I754
tp1280
a(I2964
I754
tp1281
a(I2132
I-8
tp1282
a(I208
I754
tp1283
a(I2236
I-8
tp1284
a(I2652
I754
tp1285
a(I988
I754
tp1286
a(I232
I180
tp1287
a(I828
I297
tp1288
a(I1924
I-10
tp1289
a(I2496
I-8
tp1290
a(I130
I526
tp1291
a(I1627
I297
tp1292
a(I2184
I-10
tp1293
a(I624
I-10
tp1294
a(I1439
I646
tp1295
a(I83
I410
tp1296
a(I2184
I-10
tp1297
a(I2480
I524
tp1298
a(I1040
I754
tp1299
a(I1352
I-10
tp1300
a(I1212
I646
tp1301
a(I2184
I-8
tp1302
a(I998
I297
tp1303
a(I2704
I754
tp1304
a(I104
I754
tp1305
a(I79
I526
tp1306
a(I1508
I-8
tp1307
a(I260
I754
tp1308
a(I2703
I647
tp1309
a(I2471
I647
tp1310
a(I1560
I-10
tp1311
a(I2010
I524
tp1312
a(I1924
I-8
tp1313
a(I1872
I-10
tp1314
a(I2349
I190
tp1315
a(I2548
I755
tp1316
a(I2444
I755
tp1317
a(I2704
I754
tp1318
a(I676
I-10
tp1319
a(I2912
I754
tp1320
a(I1248
I755
tp1321
a(I2340
I754
tp1322
a(I1664
I-8
tp1323
a(I1916
I411
tp1324
a(I2323
I413
tp1325
a(I260
I755
tp1326
a(I1473
I297
tp1327
a(I1144
I-10
tp1328
a(I2340
I-8
tp1329
a(I104
I-8
tp1330
a(I743
I297
tp1331
a(I2860
I754
tp1332
a(I208
I754
tp1333
a(I988
I754
tp1334
a(I2340
I755
tp1335
a(I1808
I647
tp1336
a(I780
I755
tp1337
a(I967
I186
tp1338
a(I364
I754
tp1339
a(I1092
I754
tp1340
a(I2808
I755
tp1341
a(I416
I-8
tp1342
a(I175
I67
tp1343
a(I1248
I755
tp1344
a(I832
I-8
tp1345
a(I1741
I298
tp1346
a(I2121
I413
tp1347
a(I1352
I754
tp1348
a(I884
I-8
tp1349
a(I2236
I754
tp1350
a(I1349
I410
tp1351
a(I936
I-8
tp1352
a(I416
I-8
tp1353
a(I1352
I-8
tp1354
a(I2340
I755
tp1355
a(I1318
I70
tp1356
a(I1820
I-10
tp1357
a(I2844
I524
tp1358
a(I1456
I-10
tp1359
a(I1528
I297
tp1360
a(I1092
I-8
tp1361
a(I520
I-8
tp1362
a(I416
I754
tp1363
a(I468
I754
tp1364
a(I2652
I754
tp1365
a(I2234
I647
tp1366
a(I364
I755
tp1367
a(I676
I-8
tp1368
a(I156
I754
tp1369
a(I260
I-8
tp1370
a(I208
I-10
tp1371
a(I2652
I-8
tp1372
a(I1872
I755
tp1373
a(I2019
I75
tp1374
a(I260
I754
tp1375
a(I2652
I-8
tp1376
a(I104
I754
tp1377
a(I236
I296
tp1378
a(I1926
I298
tp1379
a(I2496
I-8
tp1380
a(I416
I-8
tp1381
a(I1612
I754
tp1382
a(I1300
I755
tp1383
a(I104
I755
tp1384
a(I676
I754
tp1385
a(I1933
I524
tp1386
a(I572
I754
tp1387
a(I2028
I755
tp1388
a(I1300
I-8
tp1389
a(I936
I754
tp1390
a(I780
I754
tp1391
a(I2138
I190
tp1392
a(I1300
I754
tp1393
a(I2496
I754
tp1394
a(I2219
I298
tp1395
a(I1872
I-8
tp1396
a(I1820
I-8
tp1397
a(I2704
I754
tp1398
a(I520
I754
tp1399
a(I1196
I754
tp1400
a(I1352
I646
tp1401
a(I624
I754
tp1402
a(I676
I755
tp1403
a(I1924
I-8
tp1404
a(I676
I-8
tp1405
a(I2392
I-10
tp1406
a(I1404
I755
tp1407
a(I2808
I-8
tp1408
a(I1871
I298
tp1409
a(I312
I-8
tp1410
a(I1716
I-8
tp1411
a(I1766
I524
tp1412
a(I1893
I411
tp1413
a(I1456
I-8
tp1414
a(I520
I754
tp1415
a(I572
I-8
tp1416
a(I1248
I-8
tp1417
a(I1717
I524
tp1418
a(I1664
I754
tp1419
a(I2893
I186
tp1420
a(I416
I755
tp1421
a(I2126
I647
tp1422
a(I156
I755
tp1423
a(I1150
I186
tp1424
a(I1958
I191
tp1425
a(I416
I-8
tp1426
a(I260
I-8
tp1427
a(I936
I755
tp1428
a(I2964
I754
tp1429
a(I1768
I-8
tp1430
a(I988
I754
tp1431
a(I208
I754
tp1432
a(I2496
I-10
tp1433
a(I2268
I76
tp1434
a(I1788
I411
tp1435
a(I1768
I754
tp1436
a(I364
I755
tp1437
a(I780
I755
tp1438
a(I2808
I754
tp1439
a(I1300
I754
tp1440
a(I2808
I-8
tp1441
a(I2964
I754
tp1442
a(I419
I296
tp1443
a(I1144
I-8
tp1444
a(I1768
I-8
tp1445
a(I832
I-8
tp1446
a(I1656
I524
tp1447
a(I832
I755
tp1448
a(I676
I-8
tp1449
a(I52
I-8
tp1450
a(I2496
I-8
tp1451
a(I2209
I413
tp1452
a(I2756
I-8
tp1453
a(I2830
I186
tp1454
a(I2283
I298
tp1455
a(I1508
I-8
tp1456
a(I1743
I190
tp1457
a(I2028
I754
tp1458
a(I208
I-10
tp1459
a(I2496
I754
tp1460
a(I2600
I-8
tp1461
a(I1196
I-8
tp1462
a(I312
I-8
tp1463
a(I2664
I524
tp1464
a(I2531
I186
tp1465
a(I208
I-8
tp1466
a(I780
I-8
tp1467
a(I2392
I-8
tp1468
a(I1248
I524
tp1469
a(I2975
I187
tp1470
a(I1948
I75
tp1471
a(I1820
I754
tp1472
a(I2652
I754
tp1473
a(I791
I185
tp1474
a(I1456
I-8
tp1475
a(I728
I755
tp1476
a(I936
I754
tp1477
a(I416
I-8
tp1478
a(I208
I-8
tp1479
a(I624
I-10
tp1480
a(I552
I67
tp1481
a(I2808
I755
tp1482
a(I1200
I646
tp1483
a(I156
I-10
tp1484
a(I1820
I754
tp1485
a(I2340
I754
tp1486
a(I2886
I298
tp1487
a(I2256
I647
tp1488
a(I2444
I-10
tp1489
a(I2600
I754
tp1490
a(I2652
I-8
tp1491
a(I266
I67
tp1492
a(I2965
I73
tp1493
a(I1196
I-8
tp1494
a(I1092
I-8
tp1495
a(I2548
I754
tp1496
a(I52
I-8
tp1497
a(I2964
I-8
tp1498
a(I1662
I75
tp1499
a(I1664
I755
tp1500
a(I1257
I187
tp1501
a(I1144
I754
tp1502
a(I2184
I-8
tp1503
a(I2464
I298
tp1504
a(I2881
I73
tp1505
a(I2028
I754
tp1506
a(I1352
I754
tp1507
a(I2600
I-8
tp1508
a(I2132
I755
tp1509
a(I2548
I754
tp1510
a(I832
I-10
tp1511
a(I2392
I755
tp1512
a(I1872
I754
tp1513
a(I2132
I-10
tp1514
a(I1612
I754
tp1515
a(I1040
I754
tp1516
a(I2808
I-8
tp1517
a(I2600
I754
tp1518
a(I422
I410
tp1519
a(I2860
I-8
tp1520
a(I2981
I413
tp1521
a(I1092
I-10
tp1522
a(I1664
I-8
tp1523
a(I2288
I754
tp1524
a(I2340
I-8
tp1525
a(I1404
I754
tp1526
a(I2704
I-8
tp1527
a(I884
I-8
tp1528
a(I1411
I646
tp1529
a(I416
I754
tp1530
a(I58
I410
tp1531
a(I2652
I754
tp1532
a(I2604
I413
tp1533
a(I1612
I755
tp1534
a(I1144
I754
tp1535
a(I2912
I754
tp1536
a(I1612
I754
tp1537
a(I2548
I754
tp1538
a(I416
I754
tp1539
a(I2666
I413
tp1540
a(I1760
I75
tp1541
a(I1928
I191
tp1542
a(I2624
I647
tp1543
a(I1300
I-8
tp1544
a(I379
I296
tp1545
a(I355
I410
tp1546
a(I2869
I524
tp1547
a(I1768
I-8
tp1548
a(I2697
I524
tp1549
a(I2340
I-10
tp1550
a(I239
I410
tp1551
a(I988
I754
tp1552
a(I2600
I-10
tp1553
a(I0
I-8
tp1554
a(I1612
I754
tp1555
a(I260
I754
tp1556
a(I312
I-8
tp1557
a(I2335
I647
tp1558
a(I341
I67
tp1559
a(I2230
I190
tp1560
a(I676
I-8
tp1561
a(I364
I-8
tp1562
a(I2392
I-10
tp1563
a(I2051
I190
tp1564
a(I728
I754
tp1565
a(I2236
I-8
tp1566
a(I2028
I-10
tp1567
a(I1716
I754
tp1568
a(I1404
I754
tp1569
a(I2964
I-10
tp1570
a(I2132
I-8
tp1571
a(I1196
I754
tp1572
a(I572
I754
tp1573
a(I2303
I298
tp1574
a(I156
I-8
tp1575
a(I1924
I754
tp1576
a(I2944
I524
tp1577
a(I2444
I754
tp1578
a(I832
I754
tp1579
a(I1404
I-8
tp1580
a(I780
I754
tp1581
a(I1872
I-8
tp1582
a(I52
I754
tp1583
a(I1451
I524
tp1584
a(I1987
I524
tp1585
a(I2756
I-8
tp1586
a(I2496
I754
tp1587
a(I2288
I754
tp1588
a(I1456
I755
tp1589
a(I21
I639
tp1590
a(I2496
I-10
tp1591
a(I2206
I524
tp1592
a(I1046
I186
tp1593
a(I1352
I754
tp1594
a(I1211
I524
tp1595
a(I2392
I754
tp1596
a(I0
I-8
tp1597
a(I2132
I754
tp1598
a(I1768
I755
tp1599
a(I1716
I755
tp1600
a(I1404
I-8
tp1601
a(I1628
I410
tp1602
a(I2766
I72
tp1603
a(I1508
I-8
tp1604
a(I2305
I190
tp1605
a(I2236
I754
tp1606
a(I1404
I754
tp1607
a(I794
I297
tp1608
a(I2048
I647
tp1609
a(I2392
I-8
tp1610
a(I1924
I754
tp1611
a(I104
I755
tp1612
a(I624
I-8
tp1613
a(I2392
I754
tp1614
a(I1300
I754
tp1615
a(I2288
I-8
tp1616
a(I52
I-8
tp1617
a(I2392
I754
tp1618
a(I1560
I754
tp1619
a(I0
I-8
tp1620
a(I312
I754
tp1621
a(I832
I754
tp1622
a(I156
I-8
tp1623
a(I1664
I-8
tp1624
a(I567
I296
tp1625
a(I2080
I754
tp1626
a(I1560
I-8
tp1627
a(I2549
I413
tp1628
a(I2184
I754
tp1629
a(I142
I67
tp1630
a(I208
I-8
tp1631
a(I1248
I-10
tp1632
a(I2392
I-8
tp1633
a(I2677
I298
tp1634
a(I1248
I-8
tp1635
a(I1889
I524
tp1636
a(I2808
I-8
tp1637
a(I2548
I754
tp1638
a(I1144
I755
tp1639
a(I364
I754
tp1640
a(I520
I-8
tp1641
a(I1167
I646
tp1642
a(I2240
I524
tp1643
a(I1716
I-8
tp1644
a(I1040
I-8
tp1645
a(I1508
I754
tp1646
a(I2167
I413
tp1647
a(I1585
I297
tp1648
a(I387
I410
tp1649
a(I506
I410
tp1650
a(I73
I180
tp1651
a(I2548
I-8
tp1652
a(I1092
I754
tp1653
a(I2652
I755
tp1654
a(I2366
I298
tp1655
a(I572
I755
tp1656
a(I2028
I-8
tp1657
a(I416
I754
tp1658
a(I1508
I754
tp1659
a(I2652
I755
tp1660
a(I780
I754
tp1661
a(I2912
I-8
tp1662
a(I2860
I-8
tp1663
a(I1994
I75
tp1664
a(I2184
I754
tp1665
a(I572
I754
tp1666
a(I2247
I76
tp1667
a(I2808
I-8
tp1668
a(I1456
I754
tp1669
a(I0
I-8
tp1670
a(I260
I754
tp1671
a(I1456
I755
tp1672
a(I48
I296
tp1673
a(I1092
I-8
tp1674
a(I364
I-10
tp1675
a(I2619
I524
tp1676
a(I2513
I413
tp1677
a(I260
I754
tp1678
a(I2187
I76
tp1679
a(I884
I-8
tp1680
a(I52
I754
tp1681
a(I2964
I-8
tp1682
a(I2787
I524
tp1683
a(I52
I-8
tp1684
a(I1742
I524
tp1685
a(I2756
I-8
tp1686
a(I1644
I410
tp1687
a(I2099
I524
tp1688
a(I988
I754
tp1689
a(I1508
I-8
tp1690
a(I1843
I298
tp1691
a(I22
I526
tp1692
a(I312
I-8
tp1693
a(I2132
I-10
tp1694
a(I2704
I-8
tp1695
a(I364
I754
tp1696
a(I1040
I-10
tp1697
a(I260
I-8
tp1698
a(I1820
I754
tp1699
a(I1612
I754
tp1700
a(I1872
I754
tp1701
a(I1820
I754
tp1702
a(I1352
I-8
tp1703
a(I2132
I-8
tp1704
a(I676
I754
tp1705
a(I832
I-10
tp1706
a(I2756
I754
tp1707
a(I2756
I754
tp1708
a(I1404
I-10
tp1709
a(I416
I754
tp1710
a(I417
I67
tp1711
a(I2132
I755
tp1712
a(I780
I-8
tp1713
a(I260
I754
tp1714
a(I2236
I-8
tp1715
a(I1716
I755
tp1716
a(I2704
I755
tp1717
a(I459
I67
tp1718
a(I2080
I754
tp1719
a(I1768
I755
tp1720
a(I2444
I754
tp1721
a(I2756
I754
tp1722
a.(lp1
.(lp1
(I706
I356
tp2
a(I2851
I485
tp3
a(I1259
I141
tp4
a(I1403
I706
tp5
a(I2462
I35
tp6
a(I2340
I484
tp7
a(I1899
I260
tp8
a(I1376
I477
tp9
a(I2805
I34
tp10
a(I2498
I607
tp11
a(I2585
I713
tp12
a(I2746
I257
tp13
a(I2102
I705
tp14
a(I2374
I605
tp15
a(I1712
I705
tp16
a(I1435
I253
tp17
a(I2870
I250
tp18
a(I251
I257
tp19
a(I1842
I595
tp20
a(I2133
I603
tp21
a(I910
I149
tp22
a(I2616
I366
tp23
a(I2625
I606
tp24
a(I2815
I141
tp25
a(I2221
I372
tp26
a(I113
I141
tp27
a(I1544
I707
tp28
a(I2457
I712
tp29
a(I1141
I139
tp30
a(I732
I709
tp31
a(I823
I263
tp32
a(I1775
I262
tp33
a(I1609
I472
tp34
a(I312
I368
tp35
a(I113
I367
tp36
a(I2104
I254
tp37
a(I2725
I713
tp38
a(I2039
I145
tp39
a(I1501
I604
tp40
a(I1956
I368
tp41
a(I2612
I258
tp42
a(I1678
I37
tp43
a(I2255
I704
tp44
a(I2005
I482
tp45
a(I1842
I705
tp46
a(I1609
I141
tp47
a(I2553
I37
tp48
a(I2336
I363
tp49
a(I1613
I241
tp50
a(I64
I257
tp51
a(I255
I712
tp52
a(I2758
I368
tp53
a(I1859
I480
tp54
a(I52
I598
tp55
a(I1260
I709
tp56
a(I2002
I597
tp57
a(I2218
I484
tp58
a(I2868
I714
tp59
a(I2518
I480
tp60
a(I2888
I364
tp61
a(I1972
I705
tp62
a(I2640
I33
tp63
a(I2900
I144
tp64
a(I515
I360
tp65
a(I1028
I146
tp66
a(I116
I709
tp67
a(I900
I357
tp68
a(I2553
I141
tp69
a(I1227
I482
tp70
a(I1372
I593
tp71
a(I1714
I595
tp72
a(I2745
I605
tp73
a(I2219
I254
tp74
a(I495
I713
tp75
a(I1128
I257
tp76
a(I1624
I144
tp77
a(I1765
I367
tp78
a(I2915
I609
tp79
a(I1364
I375
tp80
a(I2727
I486
tp81
a(I1623
I354
tp82
a(I2962
I485
tp83
a(I1744
I481
tp84
a(I2622
I480
tp85
a(I2720
I143
tp86
a(I535
I259
tp87
a(I1303
I260
tp88
a(I1121
I372
tp89
a(I1248
I371
tp90
a(I2724
I34
tp91
a(I1801
I142
tp92
a(I2526
I366
tp93
a(I2896
I34
tp94
a(I2217
I149
tp95
a(I2430
I254
tp96
a(I1970
I36
tp97
a.(lp1
(I2117
I123
tp2
a(I2537
I232
tp3
a(I1173
I686
tp4
a(I1713
I341
tp5
a(I254
I115
tp6
a(I2962
I346
tp7
a(I24
I457
tp8
a(I2266
I231
tp9
a(I2807
I686
tp10
a(I2479
I456
tp11
a(I1235
I570
tp12
a(I1646
I454
tp13
a(I-111
I-44
tp14
a(I2169
I456
tp15
a(I1646
I229
tp16
a(I1889
I453
tp17
a(I-137
I178
tp18
a(I416
I230
tp19
a(I80
I684
tp20
a(I124
I572
tp21
a(I1388
I120
tp22
a(I1718
I119
tp23
a(I2313
I684
tp24
a(I1318
I117
tp25
a(I1594
I122
tp26
a(I1699
I686
tp27
a(I2232
I573
tp28
a(I2031
I340
tp29
a(I1190
I-54
tp30
a(I2973
I683
tp31
a(I2867
I577
tp32
a(I1610
I574
tp33
a(I2171
I122
tp34
a(I1490
I453
tp35
a(I1871
I124
tp36
a(I749
I232
tp37
a(I2948
I112
tp38
a(I2400
I347
tp39
a(I1590
I341
tp40
a(I1059
I342
tp41
a(I1811
I455
tp42
a(I2578
I118
tp43
a(I1006
I688
tp44
a(I996
I345
tp45
a(I23
I229
tp46
a(I1312
I686
tp47
a(I331
I229
tp48
a(I1974
I230
tp49
a.(I2651
I144
t.S'data/levels/apartment.lvl'
p1
.