S'Apartment'
p1
.(I3000
I750
tp1
.(I1074
I717
tp1
.(lp1
(I3010
I276
tp2
a(I-10
I736
tp3
a(I1674
I427
tp4
a(I3010
I690
tp5
a(I3010
I690
tp6
a(I-10
I414
tp7
a(I-10
I690
tp8
a(I3010
I138
tp9
a(I-10
I92
tp10
a(I3010
I230
tp11
a(I-10
I414
tp12
a(I1674
I384
tp13
a(I3010
I506
tp14
a(I3010
I368
tp15
a(I2008
I218
tp16
a(I1636
I593
tp17
a(I3010
I460
tp18
a(I2272
I595
tp19
a(I3010
I460
tp20
a(I1674
I412
tp21
a(I1141
I578
tp22
a(I3010
I92
tp23
a(I2369
I272
tp24
a(I1674
I497
tp25
a(I-10
I414
tp26
a(I3010
I460
tp27
a(I2289
I146
tp28
a(I1937
I127
tp29
a(I3010
I368
tp30
a(I-10
I92
tp31
a(I-10
I368
tp32
a(I1565
I116
tp33
a(I1142
I676
tp34
a(I2384
I47
tp35
a(I3010
I92
tp36
a(I-10
I46
tp37
a(I3010
I368
tp38
a(I2142
I17
tp39
a(I-10
I414
tp40
a(I-10
I368
tp41
a(I1352
I129
tp42
a(I3010
I138
tp43
a(I2369
I216
tp44
a(I3010
I322
tp45
a(I3010
I0
tp46
a(I3010
I552
tp47
a(I2142
I163
tp48
a(I-10
I736
tp49
a(I-10
I552
tp50
a(I3010
I184
tp51
a(I3010
I46
tp52
a(I3010
I506
tp53
a(I3010
I184
tp54
a(I-10
I276
tp55
a(I-10
I0
tp56
a(I1674
I343
tp57
a(I2360
I712
tp58
a(I3010
I690
tp59
a(I3010
I0
tp60
a(I2439
I497
tp61
a(I3010
I736
tp62
a(I1936
I101
tp63
a(I-10
I184
tp64
a(I-10
I92
tp65
a(I3010
I184
tp66
a(I-10
I598
tp67
a(I3010
I276
tp68
a(I-10
I414
tp69
a(I-10
I184
tp70
a(I2272
I550
tp71
a(I-10
I644
tp72
a(I3010
I322
tp73
a(I3010
I644
tp74
a(I3010
I230
tp75
a(I1019
I384
tp76
a(I3010
I644
tp77
a(I2834
I621
tp78
a(I-10
I46
tp79
a(I3010
I460
tp80
a(I436
I93
tp81
a(I3010
I736
tp82
a(I3010
I690
tp83
a(I3010
I276
tp84
a(I3010
I138
tp85
a(I3010
I184
tp86
a(I289
I153
tp87
a(I1141
I544
tp88
a(I-10
I92
tp89
a(I2617
I119
tp90
a(I2141
I498
tp91
a(I1019
I228
tp92
a(I1565
I83
tp93
a(I3010
I644
tp94
a(I2142
I147
tp95
a(I1842
I20
tp96
a(I-10
I138
tp97
a(I947
I673
tp98
a(I3010
I598
tp99
a(I-10
I506
tp100
a(I3010
I184
tp101
a(I-10
I230
tp102
a(I722
I272
tp103
a(I-10
I46
tp104
a(I150
I480
tp105
a(I3010
I92
tp106
a(I3010
I184
tp107
a(I-10
I322
tp108
a(I3010
I276
tp109
a(I-10
I322
tp110
a(I3010
I276
tp111
a(I3010
I368
tp112
a(I-10
I0
tp113
a(I-10
I552
tp114
a(I-10
I184
tp115
a(I-10
I690
tp116
a(I3010
I46
tp117
a(I-10
I644
tp118
a(I3010
I690
tp119
a(I2141
I465
tp120
a(I3010
I460
tp121
a(I-10
I506
tp122
a(I-10
I138
tp123
a(I-10
I644
tp124
a(I-10
I644
tp125
a(I1636
I689
tp126
a(I3010
I276
tp127
a(I-10
I414
tp128
a(I3010
I92
tp129
a(I3010
I230
tp130
a(I3010
I644
tp131
a(I-10
I276
tp132
a(I3010
I552
tp133
a(I1019
I212
tp134
a(I3010
I690
tp135
a(I-10
I690
tp136
a(I1850
I324
tp137
a(I-10
I46
tp138
a(I3010
I0
tp139
a(I-10
I0
tp140
a(I3010
I276
tp141
a(I-10
I690
tp142
a(I-10
I644
tp143
a(I-10
I276
tp144
a(I-10
I690
tp145
a(I1674
I274
tp146
a(I3010
I276
tp147
a(I3010
I736
tp148
a(I3010
I414
tp149
a(I3010
I230
tp150
a(I1565
I18
tp151
a(I-10
I368
tp152
a(I-10
I368
tp153
a(I1565
I372
tp154
a(I-10
I46
tp155
a(I1674
I458
tp156
a(I-10
I736
tp157
a(I3010
I598
tp158
a(I3010
I598
tp159
a(I3010
I690
tp160
a(I3010
I0
tp161
a(I-10
I322
tp162
a(I3010
I184
tp163
a(I-10
I506
tp164
a(I-10
I46
tp165
a(I-10
I736
tp166
a(I-10
I230
tp167
a(I-10
I276
tp168
a(I436
I119
tp169
a(I3010
I138
tp170
a(I-10
I644
tp171
a(I-10
I322
tp172
a(I-10
I138
tp173
a(I1565
I354
tp174
a(I2289
I100
tp175
a(I2289
I115
tp176
a(I3010
I138
tp177
a(I1636
I618
tp178
a(I-10
I690
tp179
a(I-10
I0
tp180
a(I2008
I272
tp181
a(I3010
I230
tp182
a(I1141
I618
tp183
a(I3010
I184
tp184
a(I3010
I322
tp185
a(I436
I105
tp186
a(I-10
I598
tp187
a(I3010
I460
tp188
a(I-10
I368
tp189
a(I-10
I506
tp190
a(I3010
I322
tp191
a(I3010
I230
tp192
a(I-10
I736
tp193
a(I3010
I184
tp194
a(I-10
I690
tp195
a(I-10
I0
tp196
a(I-10
I598
tp197
a(I2369
I238
tp198
a(I1019
I323
tp199
a(I3010
I46
tp200
a(I3010
I598
tp201
a(I3010
I736
tp202
a(I2439
I387
tp203
a(I808
I157
tp204
a(I-10
I46
tp205
a(I3010
I368
tp206
a(I3010
I322
tp207
a(I1674
I119
tp208
a(I-10
I184
tp209
a(I-10
I460
tp210
a(I2141
I384
tp211
a(I1674
I234
tp212
a(I-10
I460
tp213
a(I-10
I736
tp214
a(I3010
I414
tp215
a(I3010
I92
tp216
a(I3010
I644
tp217
a(I-10
I506
tp218
a(I-10
I92
tp219
a(I1674
I311
tp220
a(I2141
I364
tp221
a(I1565
I60
tp222
a(I-10
I230
tp223
a(I1565
I323
tp224
a(I2439
I324
tp225
a(I3010
I644
tp226
a(I-10
I368
tp227
a(I-10
I322
tp228
a(I3010
I460
tp229
a(I-10
I0
tp230
a(I-10
I598
tp231
a(I3010
I414
tp232
a(I2506
I98
tp233
a(I2141
I439
tp234
a(I3010
I322
tp235
a(I1674
I144
tp236
a(I1019
I347
tp237
a(I-10
I552
tp238
a(I1295
I15
tp239
a(I1565
I243
tp240
a(I-10
I460
tp241
a(I-10
I736
tp242
a(I3010
I460
tp243
a(I1565
I156
tp244
a(I-10
I230
tp245
a(I1414
I18
tp246
a(I-10
I736
tp247
a(I3010
I230
tp248
a(I152
I552
tp249
a(I1295
I44
tp250
a(I-10
I92
tp251
a(I3010
I0
tp252
a(I3010
I46
tp253
a(I1850
I385
tp254
a(I3010
I598
tp255
a(I-10
I552
tp256
a(I-10
I184
tp257
a(I3010
I506
tp258
a(I2506
I212
tp259
a(I3010
I46
tp260
a(I-10
I552
tp261
a(I151
I579
tp262
a(I3010
I46
tp263
a(I1636
I732
tp264
a(I3010
I460
tp265
a(I2617
I159
tp266
a(I-10
I230
tp267
a(I1141
I437
tp268
a(I3010
I644
tp269
a(I2506
I114
tp270
a(I1352
I160
tp271
a(I3010
I414
tp272
a(I1674
I169
tp273
a(I289
I92
tp274
a(I-10
I644
tp275
a(I-10
I92
tp276
a(I3010
I598
tp277
a(I808
I115
tp278
a(I3010
I736
tp279
a(I3010
I92
tp280
a(I-10
I184
tp281
a(I-10
I598
tp282
a(I-10
I230
tp283
a(I2142
I50
tp284
a(I722
I212
tp285
a(I-10
I0
tp286
a(I3010
I736
tp287
a(I-10
I138
tp288
a(I2506
I159
tp289
a(I1268
I570
tp290
a(I-10
I690
tp291
a(I436
I154
tp292
a(I3010
I552
tp293
a(I-10
I184
tp294
a(I2360
I672
tp295
a(I-10
I506
tp296
a(I2008
I246
tp297
a(I3010
I690
tp298
a(I3010
I322
tp299
a(I1565
I40
tp300
a(I-10
I644
tp301
a(I-10
I46
tp302
a(I1565
I497
tp303
a(I3010
I552
tp304
a(I3010
I138
tp305
a(I383
I225
tp306
a(I1850
I348
tp307
a(I3010
I690
tp308
a(I-10
I276
tp309
a(I-10
I460
tp310
a(I1565
I273
tp311
a(I-10
I368
tp312
a(I3010
I138
tp313
a(I-10
I552
tp314
a(I-10
I0
tp315
a(I3010
I0
tp316
a(I3010
I92
tp317
a(I3010
I690
tp318
a(I3010
I736
tp319
a(I-10
I276
tp320
a(I3010
I506
tp321
a(I-10
I598
tp322
a(I1142
I734
tp323
a(I-10
I322
tp324
a(I2439
I342
tp325
a(I3010
I138
tp326
a(I3010
I92
tp327
a(I-10
I184
tp328
a(I1019
I270
tp329
a(I3010
I552
tp330
a(I-10
I230
tp331
a(I1565
I483
tp332
a(I-10
I414
tp333
a(I3010
I230
tp334
a(I3010
I414
tp335
a(I-10
I368
tp336
a(I-10
I138
tp337
a(I-10
I598
tp338
a(I1268
I549
tp339
a(I-10
I598
tp340
a(I-10
I414
tp341
a(I-10
I414
tp342
a(I1273
I-34
tp343
a(I3010
I506
tp344
a(I3010
I92
tp345
a(I3010
I552
tp346
a(I3010
I506
tp347
a(I-10
I138
tp348
a(I3010
I46
tp349
a(I-10
I184
tp350
a(I151
I613
tp351
a(I-10
I322
tp352
a(I3010
I598
tp353
a(I-10
I552
tp354
a(I3010
I736
tp355
a(I1636
I672
tp356
a(I-10
I506
tp357
a(I2142
I102
tp358
a(I1842
I48
tp359
a(I3010
I644
tp360
a(I2384
I5
tp361
a(I1565
I436
tp362
a(I1850
I377
tp363
a(I3010
I506
tp364
a(I3010
I92
tp365
a(I-10
I460
tp366
a(I3010
I414
tp367
a(I-10
I644
tp368
a(I3010
I138
tp369
a(I1636
I572
tp370
a(I383
I269
tp371
a(I1565
I384
tp372
a(I947
I730
tp373
a(I2272
I620
tp374
a(I-10
I46
tp375
a(I1268
I620
tp376
a(I3010
I322
tp377
a(I808
I95
tp378
a(I-10
I460
tp379
a(I1352
I97
tp380
a(I3010
I598
tp381
a(I3010
I506
tp382
a(I-10
I138
tp383
a(I3010
I0
tp384
a(I2289
I164
tp385
a(I-10
I598
tp386
a(I-10
I322
tp387
a(I3010
I46
tp388
a(I3010
I230
tp389
a(I3010
I552
tp390
a(I3010
I644
tp391
a(I1674
I100
tp392
a(I-10
I690
tp393
a(I-10
I506
tp394
a(I-10
I690
tp395
a(I947
I687
tp396
a(I2506
I232
tp397
a(I3010
I276
tp398
a(I3010
I322
tp399
a(I3010
I552
tp400
a(I1141
I471
tp401
a(I-10
I552
tp402
a(I3010
I276
tp403
a(I-10
I322
tp404
a(I3010
I322
tp405
a(I3010
I0
tp406
a(I3010
I506
tp407
a(I-10
I138
tp408
a(I3010
I138
tp409
a(I3010
I644
tp410
a(I-10
I460
tp411
a(I-10
I322
tp412
a(I3010
I184
tp413
a(I-10
I460
tp414
a(I-10
I460
tp415
a(I2834
I551
tp416
a(I-10
I230
tp417
a(I-10
I506
tp418
a(I1937
I164
tp419
a(I-10
I0
tp420
a(I3010
I598
tp421
a(I-10
I276
tp422
a(I1565
I460
tp423
a(I2617
I124
tp424
a(I3010
I368
tp425
a(I3010
I368
tp426
a(I-10
I460
tp427
a(I3010
I368
tp428
a(I2617
I97
tp429
a(I-10
I598
tp430
a(I2439
I482
tp431
a(I2360
I697
tp432
a(I-10
I644
tp433
a(I-10
I92
tp434
a(I150
I463
tp435
a(I150
I439
tp436
a(I-10
I230
tp437
a(I2834
I567
tp438
a(I3010
I736
tp439
a(I3010
I598
tp440
a(I1674
I208
tp441
a(I3010
I414
tp442
a(I-10
I368
tp443
a(I1141
I499
tp444
a(I3010
I736
tp445
a(I3010
I414
tp446
a(I1141
I520
tp447
a(I-10
I276
tp448
a(I-10
I230
tp449
a(I383
I206
tp450
a(I2439
I439
tp451
a(I947
I696
tp452
a(I-10
I276
tp453
a(I150
I500
tp454
a(I-10
I46
tp455
a(I3010
I0
tp456
a(I722
I233
tp457
a(I3010
I0
tp458
a(I1636
I705
tp459
a(I-10
I138
tp460
a(I3010
I368
tp461
a(I3010
I230
tp462
a(I-10
I736
tp463
a(I2439
I364
tp464
a(I1142
I702
tp465
a(I1141
I454
tp466
a(I2141
I346
tp467
a(I-10
I0
tp468
a(I3010
I552
tp469
a(I-10
I138
tp470
a(I-10
I276
tp471
a(I2834
I590
tp472
a(I-10
I506
tp473
a(I2439
I458
tp474
a(I-10
I552
tp475
a(I-10
I736
tp476
a(I1268
I593
tp477
a(I-10
I184
tp478
a(I3010
I414
tp479
a(I-10
I368
tp480
a(I-10
I414
tp481
a(I1565
I184
tp482
a(I-10
I92
tp483
a(I-10
I552
tp484
a(I1414
I45
tp485
a(I1565
I214
tp486
a(I289
I111
tp487
a(I1636
I550
tp488
a(I3010
I460
tp489
a(I3010
I46
tp490
a(I3010
I552
tp491
a(I3010
I368
tp492
a(I3010
I46
tp493
a(I2506
I272
tp494
a(I-10
I92
tp495
a(I2141
I324
tp496
a(I3010
I506
tp497
a(I2360
I733
tp498
a(I3010
I414
tp499
a.(lp1
(I2860
I754
tp2
a(I2756
I-8
tp3
a(I2652
I754
tp4
a(I416
I755
tp5
a(I2496
I-8
tp6
a(I1352
I755
tp7
a(I1664
I754
tp8
a(I520
I754
tp9
a(I1508
I-8
tp10
a(I260
I754
tp11
a(I2964
I-10
tp12
a(I2132
I754
tp13
a(I2600
I-8
tp14
a(I1831
I524
tp15
a(I2808
I755
tp16
a(I1353
I524
tp17
a(I2704
I754
tp18
a(I1820
I754
tp19
a(I1951
I298
tp20
a(I1664
I-8
tp21
a(I208
I754
tp22
a(I2548
I755
tp23
a(I156
I-8
tp24
a(I468
I754
tp25
a(I379
I296
tp26
a(I2480
I524
tp27
a(I364
I754
tp28
a(I1976
I-8
tp29
a(I1794
I524
tp30
a(I1820
I755
tp31
a(I1196
I754
tp32
a(I1924
I-8
tp33
a(I52
I754
tp34
a(I676
I754
tp35
a(I676
I-8
tp36
a(I1404
I754
tp37
a(I2808
I754
tp38
a(I1778
I190
tp39
a(I312
I-8
tp40
a(I2288
I-8
tp41
a(I2028
I-8
tp42
a(I936
I-8
tp43
a(I1456
I754
tp44
a(I0
I-8
tp45
a(I1183
I187
tp46
a(I728
I755
tp47
a(I676
I754
tp48
a(I2869
I524
tp49
a(I2734
I647
tp50
a(I988
I-10
tp51
a(I1933
I524
tp52
a(I2028
I-8
tp53
a(I1046
I186
tp54
a(I2236
I755
tp55
a(I2756
I-8
tp56
a(I1768
I755
tp57
a(I2206
I647
tp58
a(I2704
I-10
tp59
a(I520
I754
tp60
a(I2766
I72
tp61
a(I1470
I646
tp62
a(I1248
I646
tp63
a(I1248
I-10
tp64
a(I208
I-8
tp65
a(I2760
I647
tp66
a(I1840
I75
tp67
a(I1352
I-10
tp68
a(I260
I-8
tp69
a(I1627
I297
tp70
a(I1092
I755
tp71
a(I1976
I-8
tp72
a(I1212
I646
tp73
a(I1820
I754
tp74
a(I28
I526
tp75
a(I1196
I754
tp76
a(I2184
I755
tp77
a(I780
I754
tp78
a(I536
I410
tp79
a(I130
I639
tp80
a(I1456
I754
tp81
a(I1508
I-8
tp82
a(I1716
I-8
tp83
a(I2752
I413
tp84
a(I2513
I647
tp85
a(I1214
I297
tp86
a(I2080
I-8
tp87
a(I832
I755
tp88
a(I2964
I-8
tp89
a(I2964
I754
tp90
a(I2187
I76
tp91
a(I1872
I-8
tp92
a(I2288
I-8
tp93
a(I1158
I410
tp94
a(I312
I-8
tp95
a(I2444
I-8
tp96
a(I1404
I-10
tp97
a(I1456
I-8
tp98
a(I2268
I76
tp99
a(I1560
I755
tp100
a(I364
I-8
tp101
a(I1248
I754
tp102
a(I312
I754
tp103
a(I364
I754
tp104
a(I1716
I754
tp105
a(I676
I-8
tp106
a(I156
I-8
tp107
a(I815
I410
tp108
a(I2244
I413
tp109
a(I2860
I754
tp110
a(I2638
I413
tp111
a(I1411
I646
tp112
a(I2288
I754
tp113
a(I1167
I646
tp114
a(I2964
I-8
tp115
a(I104
I-8
tp116
a(I1793
I298
tp117
a(I2808
I-8
tp118
a(I321
I180
tp119
a(I936
I-8
tp120
a(I2392
I754
tp121
a(I2562
I524
tp122
a(I2503
I298
tp123
a(I1526
I646
tp124
a(I2808
I754
tp125
a(I1233
I410
tp126
a(I676
I-8
tp127
a(I2080
I754
tp128
a(I2288
I754
tp129
a(I2704
I754
tp130
a(I2392
I754
tp131
a(I1456
I-8
tp132
a(I1612
I-8
tp133
a(I780
I755
tp134
a(I1092
I-8
tp135
a(I572
I-8
tp136
a(I656
I296
tp137
a(I2265
I524
tp138
a(I1300
I755
tp139
a(I1508
I755
tp140
a(I2912
I-10
tp141
a(I572
I754
tp142
a(I2080
I-10
tp143
a(I2704
I755
tp144
a(I2592
I524
tp145
a(I1865
I411
tp146
a(I884
I-8
tp147
a(I2132
I754
tp148
a(I1646
I189
tp149
a(I364
I755
tp150
a(I1872
I-8
tp151
a(I728
I755
tp152
a(I104
I-8
tp153
a(I1456
I755
tp154
a(I984
I186
tp155
a(I2234
I647
tp156
a(I14
I67
tp157
a(I419
I296
tp158
a(I2028
I754
tp159
a(I1456
I-8
tp160
a(I260
I-8
tp161
a(I2600
I-8
tp162
a(I1196
I754
tp163
a(I1767
I298
tp164
a(I156
I-8
tp165
a(I2236
I754
tp166
a(I1196
I-8
tp167
a(I728
I-8
tp168
a(I2392
I754
tp169
a(I1976
I754
tp170
a(I2240
I524
tp171
a(I2757
I524
tp172
a(I1092
I-8
tp173
a(I1768
I-10
tp174
a(I2756
I754
tp175
a(I1664
I754
tp176
a(I2815
I413
tp177
a(I468
I-8
tp178
a(I1040
I-8
tp179
a(I1508
I-10
tp180
a(I312
I-8
tp181
a(I2406
I72
tp182
a(I2080
I-10
tp183
a(I213
I67
tp184
a(I1300
I-8
tp185
a(I1196
I-10
tp186
a(I1924
I755
tp187
a(I2600
I755
tp188
a(I2010
I524
tp189
a(I1040
I754
tp190
a(I2288
I-8
tp191
a(I312
I755
tp192
a(I1296
I187
tp193
a(I1508
I-8
tp194
a(I2340
I-10
tp195
a(I364
I-10
tp196
a(I2406
I298
tp197
a(I2808
I755
tp198
a(I2652
I754
tp199
a(I2860
I-10
tp200
a(I1508
I-8
tp201
a(I1872
I755
tp202
a(I520
I754
tp203
a(I1768
I-8
tp204
a(I1508
I-8
tp205
a(I2080
I-8
tp206
a(I2132
I-8
tp207
a(I1352
I-8
tp208
a(I1612
I-8
tp209
a(I52
I755
tp210
a(I1451
I524
tp211
a(I1924
I-8
tp212
a(I130
I526
tp213
a(I2288
I755
tp214
a(I208
I-10
tp215
a(I520
I754
tp216
a(I52
I755
tp217
a(I1508
I-8
tp218
a(I2912
I-8
tp219
a(I2444
I755
tp220
a(I52
I-8
tp221
a(I1092
I-8
tp222
a(I208
I754
tp223
a(I2964
I-8
tp224
a(I1248
I754
tp225
a(I572
I-8
tp226
a(I270
I296
tp227
a(I341
I67
tp228
a(I208
I-8
tp229
a(I572
I754
tp230
a(I1404
I-8
tp231
a(I364
I755
tp232
a(I2600
I-8
tp233
a(I2496
I-8
tp234
a(I2340
I754
tp235
a(I2912
I754
tp236
a(I2444
I755
tp237
a(I1933
I647
tp238
a(I2756
I-8
tp239
a(I52
I754
tp240
a(I832
I754
tp241
a(I2251
I298
tp242
a(I1924
I-10
tp243
a(I1743
I190
tp244
a(I2955
I298
tp245
a(I2531
I72
tp246
a(I2104
I412
tp247
a(I2923
I187
tp248
a(I2860
I-10
tp249
a(I-170
I201
tp250
a(I572
I-8
tp251
a(I2132
I-8
tp252
a(I52
I754
tp253
a(I572
I-10
tp254
a(I1716
I754
tp255
a(I2063
I412
tp256
a(I2335
I647
tp257
a(I2548
I-8
tp258
a(I2184
I-10
tp259
a(I2964
I-10
tp260
a(I1768
I754
tp261
a(I104
I-8
tp262
a(I1716
I755
tp263
a(I618
I296
tp264
a(I2009
I647
tp265
a(I884
I755
tp266
a(I2862
I186
tp267
a(I672
I410
tp268
a(I2652
I-8
tp269
a(I572
I755
tp270
a(I698
I410
tp271
a(I1672
I524
tp272
a(I364
I-8
tp273
a(I58
I410
tp274
a(I468
I-8
tp275
a(I364
I-8
tp276
a(I1300
I755
tp277
a(I1893
I411
tp278
a(I1560
I755
tp279
a(I2548
I-8
tp280
a(I1399
I187
tp281
a(I2392
I754
tp282
a(I1144
I-8
tp283
a(I2444
I-10
tp284
a(I2570
I298
tp285
a(I156
I-8
tp286
a(I1248
I-10
tp287
a(I414
I180
tp288
a(I52
I755
tp289
a(I884
I-10
tp290
a(I2600
I-8
tp291
a(I1716
I-8
tp292
a(I2651
I647
tp293
a(I596
I410
tp294
a(I2496
I754
tp295
a(I52
I-10
tp296
a(I1716
I754
tp297
a(I998
I297
tp298
a(I2236
I754
tp299
a(I988
I754
tp300
a(I2940
I73
tp301
a(I1543
I410
tp302
a(I1820
I-8
tp303
a(I1458
I187
tp304
a(I2132
I754
tp305
a(I2912
I755
tp306
a(I1716
I-8
tp307
a(I2184
I-8
tp308
a(I156
I754
tp309
a(I638
I410
tp310
a(I676
I755
tp311
a(I208
I755
tp312
a(I468
I-8
tp313
a(I1248
I-8
tp314
a(I156
I754
tp315
a(I142
I67
tp316
a(I676
I-10
tp317
a(I2184
I755
tp318
a(I728
I-8
tp319
a(I2028
I754
tp320
a(I1992
I411
tp321
a(I2340
I-8
tp322
a(I156
I-8
tp323
a(I624
I-8
tp324
a(I2982
I298
tp325
a(I1664
I755
tp326
a(I2704
I-8
tp327
a(I1872
I754
tp328
a(I2860
I754
tp329
a(I1976
I-10
tp330
a(I1768
I754
tp331
a(I884
I755
tp332
a(I1924
I754
tp333
a(I1081
I646
tp334
a(I113
I180
tp335
a(I109
I67
tp336
a(I2256
I647
tp337
a(I1716
I-10
tp338
a(I2028
I-10
tp339
a(I2914
I298
tp340
a(I2652
I-8
tp341
a(I149
I180
tp342
a(I624
I-8
tp343
a(I2756
I755
tp344
a(I1885
I646
tp345
a(I1404
I-10
tp346
a(I2028
I754
tp347
a(I1300
I754
tp348
a(I2394
I647
tp349
a(I2496
I-10
tp350
a(I2496
I754
tp351
a(I2794
I298
tp352
a(I884
I-10
tp353
a(I2531
I186
tp354
a(I104
I-10
tp355
a(I2288
I-8
tp356
a(I936
I-8
tp357
a(I1456
I-10
tp358
a(I1768
I-8
tp359
a(I780
I754
tp360
a(I2968
I647
tp361
a(I1924
I-10
tp362
a(I2099
I524
tp363
a(I1612
I-8
tp364
a(I416
I-10
tp365
a(I572
I754
tp366
a(I1380
I646
tp367
a(I416
I754
tp368
a(I1040
I-10
tp369
a(I2028
I-10
tp370
a(I728
I754
tp371
a(I312
I755
tp372
a(I2964
I755
tp373
a(I520
I-8
tp374
a(I2756
I754
tp375
a(I1248
I-8
tp376
a(I1942
I411
tp377
a(I908
I410
tp378
a(I21
I639
tp379
a(I936
I-10
tp380
a(I1393
I71
tp381
a(I520
I-8
tp382
a(I2664
I524
tp383
a(I1164
I297
tp384
a(I2340
I754
tp385
a(I468
I754
tp386
a(I624
I754
tp387
a(I936
I-8
tp388
a(I0
I-8
tp389
a(I1739
I411
tp390
a(I828
I297
tp391
a(I1644
I410
tp392
a(I2912
I-10
tp393
a(I1426
I187
tp394
a(I1404
I754
tp395
a(I1643
I298
tp396
a(I1120
I186
tp397
a(I312
I-10
tp398
a(I2080
I754
tp399
a(I2808
I-8
tp400
a(I468
I755
tp401
a(I364
I754
tp402
a(I260
I-8
tp403
a(I988
I755
tp404
a(I624
I755
tp405
a(I624
I-8
tp406
a(I416
I-8
tp407
a(I884
I754
tp408
a(I780
I754
tp409
a(I2444
I754
tp410
a(I416
I-8
tp411
a(I884
I-8
tp412
a(I2912
I754
tp413
a(I2600
I754
tp414
a(I1358
I297
tp415
a(I1040
I754
tp416
a(I1248
I-8
tp417
a(I2290
I413
tp418
a(I0
I754
tp419
a(I2548
I-10
tp420
a(I2340
I-8
tp421
a(I1040
I754
tp422
a(I2600
I-8
tp423
a(I1705
I298
tp424
a(I770
I410
tp425
a(I884
I-8
tp426
a(I1664
I754
tp427
a(I2756
I754
tp428
a(I936
I-8
tp429
a(I2132
I-10
tp430
a(I312
I-10
tp431
a(I1508
I-8
tp432
a(I2704
I754
tp433
a(I1924
I-8
tp434
a(I1456
I755
tp435
a(I2340
I-8
tp436
a(I83
I410
tp437
a(I2132
I-10
tp438
a(I1144
I754
tp439
a(I2444
I-10
tp440
a(I1560
I-8
tp441
a(I2132
I-8
tp442
a(I1404
I754
tp443
a(I2081
I190
tp444
a(I2132
I754
tp445
a(I1656
I524
tp446
a(I2184
I-8
tp447
a(I1300
I754
tp448
a(I1664
I-8
tp449
a(I42
I67
tp450
a(I2028
I-8
tp451
a(I1902
I75
tp452
a(I1639
I74
tp453
a(I2860
I-8
tp454
a(I2808
I-8
tp455
a(I104
I-8
tp456
a(I832
I754
tp457
a(I1367
I187
tp458
a(I1300
I-8
tp459
a(I1286
I297
tp460
a(I731
I410
tp461
a(I988
I-10
tp462
a(I1150
I186
tp463
a(I590
I67
tp464
a(I2041
I75
tp465
a(I1144
I-10
tp466
a(I988
I-8
tp467
a(I2121
I413
tp468
a(I2844
I524
tp469
a(I1092
I754
tp470
a(I1384
I524
tp471
a(I1040
I-8
tp472
a(I2548
I754
tp473
a(I156
I755
tp474
a(I936
I755
tp475
a(I2600
I754
tp476
a(I1708
I75
tp477
a(I1144
I-8
tp478
a(I104
I754
tp479
a(I1820
I-8
tp480
a(I728
I754
tp481
a(I832
I-10
tp482
a(I1352
I754
tp483
a(I1924
I754
tp484
a(I1211
I524
tp485
a(I624
I754
tp486
a(I2912
I755
tp487
a(I2699
I72
tp488
a(I312
I754
tp489
a(I2928
I647
tp490
a(I2964
I755
tp491
a(I0
I755
tp492
a(I1662
I75
tp493
a(I1872
I755
tp494
a(I884
I754
tp495
a(I936
I-10
tp496
a(I1976
I-8
tp497
a(I780
I-8
tp498
a(I1716
I-10
tp499
a(I2288
I-10
tp500
a(I1300
I754
tp501
a(I936
I754
tp502
a(I936
I754
tp503
a(I572
I-8
tp504
a(I266
I67
tp505
a(I988
I-8
tp506
a(I468
I-10
tp507
a(I743
I185
tp508
a(I1926
I298
tp509
a(I0
I754
tp510
a(I1962
I524
tp511
a(I1596
I410
tp512
a(I1872
I-8
tp513
a(I2132
I755
tp514
a(I988
I-8
tp515
a(I2985
I647
tp516
a(I2123
I524
tp517
a(I1513
I410
tp518
a(I1924
I755
tp519
a(I2132
I754
tp520
a(I1768
I-10
tp521
a(I1248
I524
tp522
a(I2184
I-8
tp523
a(I2444
I-8
tp524
a(I1456
I754
tp525
a(I416
I754
tp526
a(I1924
I754
tp527
a(I2548
I755
tp528
a(I260
I-10
tp529
a(I624
I-10
tp530
a(I312
I-8
tp531
a(I2080
I755
tp532
a(I2958
I187
tp533
a(I1820
I755
tp534
a(I2964
I-10
tp535
a(I2139
I76
tp536
a(I875
I410
tp537
a(I2860
I754
tp538
a(I1352
I-10
tp539
a(I1976
I754
tp540
a(I1144
I754
tp541
a(I1040
I754
tp542
a(I2392
I-8
tp543
a(I2288
I755
tp544
a(I260
I-10
tp545
a(I208
I-8
tp546
a(I2168
I190
tp547
a(I2247
I76
tp548
a(I1768
I754
tp549
a(I2704
I-8
tp550
a(I2288
I-8
tp551
a(I2624
I647
tp552
a(I728
I754
tp553
a(I2355
I413
tp554
a(I1300
I-10
tp555
a(I156
I755
tp556
a(I2918
I524
tp557
a(I468
I-8
tp558
a(I2652
I-8
tp559
a(I624
I754
tp560
a(I2756
I754
tp561
a(I791
I185
tp562
a(I1560
I755
tp563
a(I1716
I755
tp564
a(I936
I754
tp565
a(I2756
I-10
tp566
a(I1300
I754
tp567
a(I1560
I754
tp568
a(I2548
I-8
tp569
a(I2326
I298
tp570
a(I487
I67
tp571
a(I364
I755
tp572
a(I260
I754
tp573
a(I1092
I-8
tp574
a(I2236
I-8
tp575
a(I2704
I-8
tp576
a(I1820
I754
tp577
a(I1144
I-8
tp578
a(I2600
I-8
tp579
a(I52
I754
tp580
a(I2944
I524
tp581
a(I624
I754
tp582
a(I520
I-10
tp583
a(I1073
I410
tp584
a(I2209
I413
tp585
a(I2731
I524
tp586
a(I2652
I754
tp587
a(I1872
I754
tp588
a(I858
I186
tp589
a(I468
I-10
tp590
a(I2704
I754
tp591
a(I2912
I754
tp592
a(I2288
I755
tp593
a(I1129
I297
tp594
a(I832
I754
tp595
a(I2340
I754
tp596
a(I1121
I646
tp597
a(I988
I754
tp598
a(I1185
I524
tp599
a(I468
I296
tp600
a(I1872
I754
tp601
a(I2964
I754
tp602
a(I1057
I646
tp603
a(I1560
I754
tp604
a(I2091
I75
tp605
a(I780
I755
tp606
a(I2132
I755
tp607
a(I2981
I413
tp608
a(I1760
I75
tp609
a(I676
I-8
tp610
a(I506
I410
tp611
a(I1172
I524
tp612
a(I2843
I413
tp613
a(I2166
I647
tp614
a(I1664
I-8
tp615
a(I2079
I524
tp616
a(I884
I-8
tp617
a(I1924
I754
tp618
a(I1404
I755
tp619
a(I624
I-8
tp620
a(I2340
I-8
tp621
a(I520
I754
tp622
a(I48
I296
tp623
a(I2481
I413
tp624
a(I572
I-10
tp625
a(I936
I-10
tp626
a(I239
I410
tp627
a(I1508
I-10
tp628
a(I1388
I297
tp629
a(I1686
I646
tp630
a(I936
I755
tp631
a(I1560
I754
tp632
a(I150
I296
tp633
a(I1560
I754
tp634
a(I1092
I-10
tp635
a(I1317
I524
tp636
a(I846
I410
tp637
a(I1490
I524
tp638
a(I1404
I755
tp639
a(I1585
I297
tp640
a(I208
I-10
tp641
a(I1248
I754
tp642
a(I1901
I298
tp643
a(I1092
I-10
tp644
a(I1248
I-8
tp645
a(I1352
I754
tp646
a(I2756
I-10
tp647
a(I676
I-8
tp648
a(I1352
I-8
tp649
a(I52
I-8
tp650
a(I2444
I-8
tp651
a(I1439
I646
tp652
a(I2942
I187
tp653
a(I2444
I-8
tp654
a(I893
I186
tp655
a(I10
I410
tp656
a(I2080
I754
tp657
a(I1352
I-8
tp658
a(I2440
I298
tp659
a(I1664
I-10
tp660
a(I1144
I754
tp661
a(I1967
I298
tp662
a(I1716
I754
tp663
a(I156
I755
tp664
a(I52
I754
tp665
a(I2531
I524
tp666
a(I104
I-8
tp667
a(I2444
I-8
tp668
a(I2600
I754
tp669
a(I1664
I755
tp670
a(I2756
I754
tp671
a(I1664
I754
tp672
a(I2028
I-8
tp673
a(I1404
I754
tp674
a(I1404
I-8
tp675
a(I2236
I-10
tp676
a(I364
I-8
tp677
a(I156
I-10
tp678
a(I520
I-8
tp679
a(I1508
I754
tp680
a(I2126
I647
tp681
a(I2756
I-8
tp682
a(I2392
I-8
tp683
a(I1352
I-8
tp684
a(I2340
I-10
tp685
a(I567
I296
tp686
a(I1248
I754
tp687
a(I1404
I754
tp688
a(I1508
I754
tp689
a(I1257
I187
tp690
a(I761
I68
tp691
a(I1248
I754
tp692
a(I2964
I-8
tp693
a(I936
I754
tp694
a(I193
I180
tp695
a(I2080
I755
tp696
a(I2444
I754
tp697
a(I104
I754
tp698
a(I2028
I-8
tp699
a(I1768
I-8
tp700
a(I1976
I755
tp701
a(I156
I754
tp702
a(I2305
I190
tp703
a(I1196
I754
tp704
a(I2236
I-8
tp705
a(I1040
I755
tp706
a(I1200
I646
tp707
a(I2028
I754
tp708
a(I2503
I72
tp709
a(I1820
I-8
tp710
a(I2808
I754
tp711
a(I2964
I754
tp712
a(I1508
I-10
tp713
a(I1664
I-8
tp714
a(I232
I180
tp715
a(I676
I754
tp716
a(I1118
I410
tp717
a(I913
I297
tp718
a(I2860
I-8
tp719
a(I2756
I-8
tp720
a(I2860
I-8
tp721
a(I2496
I-8
tp722
a(I988
I-10
tp723
a(I2600
I-8
tp724
a(I520
I755
tp725
a(I1447
I297
tp726
a(I2912
I754
tp727
a(I1318
I70
tp728
a(I1416
I297
tp729
a(I2496
I-8
tp730
a(I780
I-8
tp731
a(I2652
I754
tp732
a(I52
I-8
tp733
a(I1597
I189
tp734
a(I1664
I-10
tp735
a(I1872
I-10
tp736
a(I2704
I-8
tp737
a(I1248
I-8
tp738
a(I2496
I755
tp739
a(I1352
I-8
tp740
a(I2808
I754
tp741
a(I520
I755
tp742
a(I387
I410
tp743
a(I104
I755
tp744
a(I2975
I187
tp745
a(I1612
I754
tp746
a(I780
I-8
tp747
a(I2611
I298
tp748
a(I988
I-8
tp749
a(I2132
I-8
tp750
a(I936
I-8
tp751
a(I312
I67
tp752
a(I1281
I410
tp753
a(I2600
I754
tp754
a(I2860
I755
tp755
a(I2513
I413
tp756
a(I1196
I754
tp757
a(I2901
I413
tp758
a(I364
I-10
tp759
a(I1612
I754
tp760
a(I2026
I298
tp761
a(I2184
I755
tp762
a(I728
I754
tp763
a(I208
I754
tp764
a(I170
I410
tp765
a(I2340
I754
tp766
a(I1196
I-8
tp767
a(I1456
I755
tp768
a(I1352
I755
tp769
a(I988
I755
tp770
a(I2560
I647
tp771
a(I936
I755
tp772
a(I1092
I754
tp773
a(I2912
I754
tp774
a(I156
I-10
tp775
a(I832
I-8
tp776
a(I2860
I755
tp777
a(I1564
I646
tp778
a(I1040
I-8
tp779
a(I2496
I754
tp780
a(I1871
I298
tp781
a(I2808
I754
tp782
a(I1763
I411
tp783
a(I2288
I-8
tp784
a(I1248
I755
tp785
a(I1352
I-8
tp786
a(I832
I-8
tp787
a(I2184
I754
tp788
a(I1284
I524
tp789
a(I2549
I413
tp790
a(I520
I755
tp791
a(I572
I755
tp792
a(I104
I-10
tp793
a(I2464
I298
tp794
a(I52
I754
tp795
a(I2600
I755
tp796
a(I2109
I190
tp797
a(I832
I186
tp798
a(I1872
I754
tp799
a(I2340
I-10
tp800
a(I1716
I754
tp801
a(I2496
I754
tp802
a(I1768
I755
tp803
a(I2080
I755
tp804
a(I2369
I524
tp805
a(I2028
I754
tp806
a(I794
I297
tp807
a(I1924
I-8
tp808
a(I1704
I411
tp809
a(I562
I410
tp810
a(I2886
I298
tp811
a(I2725
I413
tp812
a(I2132
I-8
tp813
a(I208
I754
tp814
a(I459
I67
tp815
a(I104
I754
tp816
a(I1560
I-10
tp817
a(I1144
I-10
tp818
a(I1404
I-8
tp819
a(I1396
I410
tp820
a(I884
I-8
tp821
a(I2985
I73
tp822
a(I936
I754
tp823
a(I780
I-8
tp824
a(I1092
I755
tp825
a(I1872
I755
tp826
a(I676
I-8
tp827
a(I2964
I755
tp828
a(I2036
I298
tp829
a(I1976
I754
tp830
a(I1768
I754
tp831
a(I2673
I647
tp832
a(I1768
I754
tp833
a(I2496
I754
tp834
a(I2340
I754
tp835
a(I832
I754
tp836
a(I260
I754
tp837
a(I1593
I74
tp838
a(I2768
I186
tp839
a(I1009
I646
tp840
a(I1664
I-8
tp841
a(I676
I754
tp842
a(I2808
I-10
tp843
a(I1144
I755
tp844
a(I2392
I-8
tp845
a(I1924
I-10
tp846
a(I2028
I754
tp847
a(I2652
I-8
tp848
a(I364
I-10
tp849
a(I1896
I191
tp850
a(I1560
I-8
tp851
a(I208
I754
tp852
a(I2600
I-10
tp853
a(I156
I754
tp854
a(I34
I639
tp855
a(I2704
I-8
tp856
a(I52
I-10
tp857
a(I2548
I-10
tp858
a(I2340
I754
tp859
a(I2036
I524
tp860
a(I1300
I754
tp861
a(I1820
I-8
tp862
a(I2236
I754
tp863
a(I1612
I755
tp864
a(I1092
I754
tp865
a(I73
I180
tp866
a(I676
I754
tp867
a(I1404
I-8
tp868
a(I1496
I646
tp869
a(I2340
I-8
tp870
a(I520
I-8
tp871
a(I2600
I754
tp872
a(I1196
I-8
tp873
a(I572
I-8
tp874
a(I728
I-8
tp875
a(I624
I-8
tp876
a(I1872
I-8
tp877
a(I832
I-10
tp878
a(I1456
I-8
tp879
a(I1508
I755
tp880
a(I2912
I754
tp881
a(I2288
I754
tp882
a(I1196
I-8
tp883
a(I2008
I411
tp884
a(I1196
I754
tp885
a(I1196
I-8
tp886
a(I1877
I75
tp887
a(I572
I754
tp888
a(I52
I-8
tp889
a(I1820
I-10
tp890
a(I2578
I72
tp891
a(I1976
I754
tp892
a(I1144
I-8
tp893
a(I988
I754
tp894
a(I1742
I524
tp895
a(I18
I180
tp896
a(I884
I-10
tp897
a(I211
I410
tp898
a(I364
I-8
tp899
a(I1040
I755
tp900
a(I780
I-8
tp901
a(I2053
I412
tp902
a(I928
I186
tp903
a(I1814
I524
tp904
a(I2340
I-8
tp905
a(I2674
I186
tp906
a(I175
I67
tp907
a(I1560
I-10
tp908
a(I2704
I754
tp909
a(I695
I296
tp910
a(I2005
I298
tp911
a(I2652
I755
tp912
a(I1976
I-8
tp913
a(I197
I296
tp914
a(I728
I755
tp915
a(I1144
I754
tp916
a(I2595
I647
tp917
a(I2698
I413
tp918
a(I1092
I-8
tp919
a(I572
I-8
tp920
a(I711
I67
tp921
a(I52
I-8
tp922
a(I1820
I-8
tp923
a(I2444
I754
tp924
a(I2808
I-8
tp925
a(I2652
I754
tp926
a(I728
I-8
tp927
a(I2954
I413
tp928
a(I1889
I524
tp929
a(I1552
I297
tp930
a(I1092
I754
tp931
a(I1144
I-8
tp932
a(I2392
I755
tp933
a(I728
I-10
tp934
a(I988
I754
tp935
a(I1092
I-8
tp936
a(I2704
I754
tp937
a(I2080
I754
tp938
a(I1704
I190
tp939
a(I1560
I754
tp940
a(I416
I754
tp941
a(I1508
I754
tp942
a(I1473
I297
tp943
a(I2964
I-8
tp944
a(I1612
I755
tp945
a(I2080
I754
tp946
a(I2808
I-10
tp947
a(I391
I67
tp948
a(I520
I754
tp949
a(I2349
I298
tp950
a(I2028
I-8
tp951
a(I2080
I-8
tp952
a(I2087
I647
tp953
a(I2707
I186
tp954
a(I1439
I410
tp955
a(I2860
I754
tp956
a(I2609
I186
tp957
a(I2677
I298
tp958
a(I2184
I-8
tp959
a(I624
I-10
tp960
a(I832
I-8
tp961
a(I832
I-10
tp962
a(I1092
I754
tp963
a(I1092
I-8
tp964
a(I949
I297
tp965
a(I1872
I-8
tp966
a(I1144
I754
tp967
a(I0
I-8
tp968
a(I1976
I755
tp969
a(I1352
I-10
tp970
a(I79
I526
tp971
a(I2912
I-8
tp972
a(I1612
I-8
tp973
a(I312
I755
tp974
a(I1040
I-8
tp975
a(I2583
I186
tp976
a(I2457
I72
tp977
a(I1340
I187
tp978
a(I0
I-8
tp979
a(I2132
I754
tp980
a(I2100
I298
tp981
a(I939
I410
tp982
a(I236
I296
tp983
a(I2080
I-8
tp984
a(I2444
I-8
tp985
a(I552
I67
tp986
a(I2965
I73
tp987
a(I417
I67
tp988
a(I1299
I646
tp989
a(I1595
I646
tp990
a(I2808
I754
tp991
a(I2392
I754
tp992
a(I1664
I-8
tp993
a(I780
I-10
tp994
a(I461
I410
tp995
a(I2392
I-8
tp996
a(I877
I297
tp997
a(I1976
I-8
tp998
a(I416
I-10
tp999
a(I520
I-8
tp1000
a(I2366
I298
tp1001
a(I2889
I524
tp1002
a(I83
I639
tp1003
a(I624
I-8
tp1004
a(I208
I-8
tp1005
a(I2756
I754
tp1006
a(I1300
I-8
tp1007
a(I2652
I-8
tp1008
a(I1820
I754
tp1009
a(I1612
I-10
tp1010
a(I1631
I646
tp1011
a(I364
I754
tp1012
a(I0
I-8
tp1013
a(I2639
I186
tp1014
a(I2392
I-10
tp1015
a(I1751
I646
tp1016
a(I1456
I754
tp1017
a(I1716
I-10
tp1018
a(I2912
I-8
tp1019
a(I312
I754
tp1020
a(I1352
I754
tp1021
a(I2548
I-8
tp1022
a(I1612
I-10
tp1023
a(I624
I-8
tp1024
a(I1847
I646
tp1025
a(I1613
I410
tp1026
a(I2199
I190
tp1027
a(I1300
I755
tp1028
a(I1712
I646
tp1029
a(I2340
I755
tp1030
a(I1716
I-8
tp1031
a(I832
I754
tp1032
a(I2184
I-10
tp1033
a(I1843
I298
tp1034
a(I1196
I-8
tp1035
a(I1820
I755
tp1036
a(I1311
I410
tp1037
a(I2028
I-10
tp1038
a(I104
I754
tp1039
a(I2019
I75
tp1040
a(I2756
I-8
tp1041
a(I832
I-8
tp1042
a(I2548
I754
tp1043
a(I1664
I-10
tp1044
a(I1766
I524
tp1045
a(I416
I-8
tp1046
a(I2874
I413
tp1047
a(I468
I-8
tp1048
a(I1404
I754
tp1049
a(I1716
I-8
tp1050
a(I2184
I754
tp1051
a(I1560
I-10
tp1052
a(I1300
I-8
tp1053
a(I2080
I754
tp1054
a(I1928
I191
tp1055
a(I728
I754
tp1056
a(I1091
I186
tp1057
a(I2184
I-8
tp1058
a(I1560
I-8
tp1059
a(I260
I-8
tp1060
a(I988
I755
tp1061
a(I1144
I-8
tp1062
a(I22
I526
tp1063
a(I2401
I524
tp1064
a(I2080
I754
tp1065
a(I735
I68
tp1066
a(I728
I754
tp1067
a(I0
I755
tp1068
a(I2430
I524
tp1069
a(I1820
I-10
tp1070
a(I1144
I-8
tp1071
a(I1820
I-8
tp1072
a(I416
I754
tp1073
a(I2023
I190
tp1074
a(I73
I67
tp1075
a(I468
I755
tp1076
a(I1820
I754
tp1077
a(I1300
I-8
tp1078
a(I676
I754
tp1079
a(I2860
I-8
tp1080
a(I2808
I-8
tp1081
a(I156
I754
tp1082
a(I1367
I71
tp1083
a(I416
I754
tp1084
a(I2860
I754
tp1085
a(I0
I-10
tp1086
a(I1300
I754
tp1087
a(I2893
I186
tp1088
a(I1924
I754
tp1089
a(I1352
I754
tp1090
a(I111
I410
tp1091
a(I2132
I-8
tp1092
a(I1654
I646
tp1093
a(I2433
I647
tp1094
a(I2912
I-8
tp1095
a(I2548
I754
tp1096
a(I364
I754
tp1097
a(I2064
I75
tp1098
a(I1872
I-10
tp1099
a(I1845
I524
tp1100
a(I1040
I754
tp1101
a(I2125
I298
tp1102
a(I2964
I-8
tp1103
a(I2496
I755
tp1104
a(I1196
I754
tp1105
a(I1031
I410
tp1106
a(I2138
I190
tp1107
a(I676
I755
tp1108
a(I1717
I524
tp1109
a(I1788
I411
tp1110
a(I260
I755
tp1111
a(I319
I296
tp1112
a(I312
I754
tp1113
a(I2288
I-8
tp1114
a(I2288
I-10
tp1115
a(I1768
I-8
tp1116
a(I2652
I-10
tp1117
a(I2444
I754
tp1118
a(I518
I67
tp1119
a(I1300
I754
tp1120
a(I2964
I-8
tp1121
a(I624
I754
tp1122
a(I1248
I-8
tp1123
a(I2288
I754
tp1124
a(I572
I754
tp1125
a(I2756
I-8
tp1126
a(I2392
I-10
tp1127
a(I364
I-8
tp1128
a(I1092
I-10
tp1129
a(I2697
I524
tp1130
a(I156
I754
tp1131
a(I1546
I646
tp1132
a(I1812
I75
tp1133
a(I260
I-8
tp1134
a(I260
I754
tp1135
a(I2132
I755
tp1136
a(I2704
I755
tp1137
a(I988
I754
tp1138
a(I2496
I-8
tp1139
a(I2548
I-8
tp1140
a(I2407
I413
tp1141
a(I0
I754
tp1142
a(I2167
I413
tp1143
a(I1144
I754
tp1144
a(I1475
I410
tp1145
a(I2796
I186
tp1146
a(I2860
I-8
tp1147
a(I0
I754
tp1148
a(I312
I-8
tp1149
a(I2704
I754
tp1150
a(I1924
I-8
tp1151
a(I2392
I-8
tp1152
a(I2496
I754
tp1153
a(I260
I-10
tp1154
a(I1248
I755
tp1155
a(I645
I67
tp1156
a(I2496
I755
tp1157
a(I2808
I-8
tp1158
a(I1872
I-8
tp1159
a(I1664
I-8
tp1160
a(I2858
I298
tp1161
a(I2577
I413
tp1162
a(I624
I754
tp1163
a(I208
I-8
tp1164
a(I1664
I754
tp1165
a(I2652
I-8
tp1166
a(I1456
I754
tp1167
a(I2028
I755
tp1168
a(I728
I-10
tp1169
a(I208
I754
tp1170
a(I2743
I298
tp1171
a(I2425
I72
tp1172
a(I2756
I754
tp1173
a(I1040
I-10
tp1174
a(I1540
I524
tp1175
a(I618
I67
tp1176
a(I0
I754
tp1177
a(I2288
I754
tp1178
a(I1560
I-8
tp1179
a(I1612
I-8
tp1180
a(I624
I-10
tp1181
a(I1612
I-10
tp1182
a(I2704
I-10
tp1183
a(I1196
I755
tp1184
a(I2652
I-8
tp1185
a(I1872
I754
tp1186
a(I832
I-8
tp1187
a(I2383
I413
tp1188
a(I2184
I-8
tp1189
a(I1144
I-10
tp1190
a(I884
I754
tp1191
a(I1976
I754
tp1192
a(I1948
I75
tp1193
a(I1716
I754
tp1194
a(I366
I296
tp1195
a(I1612
I755
tp1196
a(I2431
I413
tp1197
a(I2704
I-10
tp1198
a(I884
I754
tp1199
a(I1560
I754
tp1200
a(I2184
I-10
tp1201
a(I2704
I-8
tp1202
a(I884
I754
tp1203
a(I1040
I755
tp1204
a(I1976
I754
tp1205
a(I936
I754
tp1206
a(I2392
I755
tp1207
a(I1976
I755
tp1208
a(I2184
I754
tp1209
a(I832
I755
tp1210
a(I1967
I647
tp1211
a(I2080
I-10
tp1212
a(I208
I754
tp1213
a(I2548
I754
tp1214
a(I728
I-8
tp1215
a(I2266
I190
tp1216
a(I104
I754
tp1217
a(I2288
I754
tp1218
a(I1456
I754
tp1219
a(I832
I-8
tp1220
a(I1456
I-8
tp1221
a(I2236
I-8
tp1222
a(I355
I410
tp1223
a(I2704
I755
tp1224
a(I2815
I73
tp1225
a(I468
I754
tp1226
a(I1958
I191
tp1227
a(I2912
I-8
tp1228
a(I1976
I-10
tp1229
a(I2600
I755
tp1230
a(I2392
I-10
tp1231
a(I208
I-10
tp1232
a(I416
I-8
tp1233
a(I1560
I-8
tp1234
a(I1144
I755
tp1235
a(I1508
I754
tp1236
a(I2964
I754
tp1237
a(I2964
I754
tp1238
a(I1196
I755
tp1239
a(I422
I410
tp1240
a(I2080
I-8
tp1241
a(I2028
I755
tp1242
a(I1818
I298
tp1243
a(I624
I754
tp1244
a(I104
I755
tp1245
a(I728
I-8
tp1246
a(I2340
I754
tp1247
a(I2236
I754
tp1248
a(I1560
I754
tp1249
a(I2740
I186
tp1250
a(I1716
I754
tp1251
a(I1820
I-8
tp1252
a(I832
I754
tp1253
a(I2860
I-8
tp1254
a(I2501
I524
tp1255
a(I2283
I298
tp1256
a(I1836
I411
tp1257
a(I2290
I647
tp1258
a(I2848
I73
tp1259
a(I416
I-8
tp1260
a(I104
I755
tp1261
a(I2600
I-10
tp1262
a(I2236
I-8
tp1263
a(I1508
I754
tp1264
a(I260
I754
tp1265
a(I1976
I-8
tp1266
a(I0
I754
tp1267
a(I2912
I754
tp1268
a(I260
I754
tp1269
a(I468
I754
tp1270
a(I2163
I524
tp1271
a(I2548
I754
tp1272
a(I2496
I-10
tp1273
a(I998
I186
tp1274
a(I1092
I755
tp1275
a(I1103
I646
tp1276
a(I1092
I754
tp1277
a(I2883
I647
tp1278
a(I2080
I-8
tp1279
a(I2392
I755
tp1280
a(I676
I755
tp1281
a(I2652
I755
tp1282
a(I468
I-8
tp1283
a(I1244
I297
tp1284
a(I2444
I754
tp1285
a(I884
I-8
tp1286
a(I1040
I754
tp1287
a(I2132
I-10
tp1288
a(I2543
I298
tp1289
a(I312
I-8
tp1290
a(I0
I-10
tp1291
a(I2485
I72
tp1292
a(I260
I-8
tp1293
a(I1916
I411
tp1294
a(I624
I755
tp1295
a(I1352
I754
tp1296
a(I367
I67
tp1297
a(I468
I-10
tp1298
a(I2184
I754
tp1299
a(I519
I296
tp1300
a(I1812
I411
tp1301
a(I1048
I297
tp1302
a(I2881
I73
tp1303
a(I2600
I-10
tp1304
a(I2704
I-8
tp1305
a(I82
I296
tp1306
a(I780
I754
tp1307
a(I2860
I-8
tp1308
a(I520
I-10
tp1309
a(I1924
I-8
tp1310
a(I2349
I190
tp1311
a(I468
I754
tp1312
a(I1612
I754
tp1313
a(I208
I755
tp1314
a(I104
I-8
tp1315
a(I2048
I647
tp1316
a(I312
I754
tp1317
a(I780
I-8
tp1318
a(I1820
I754
tp1319
a(I780
I-8
tp1320
a(I1508
I755
tp1321
a(I1248
I-8
tp1322
a(I2471
I647
tp1323
a(I2392
I-8
tp1324
a(I1602
I524
tp1325
a(I936
I-8
tp1326
a(I780
I-10
tp1327
a(I1628
I410
tp1328
a(I572
I754
tp1329
a(I2288
I754
tp1330
a(I2236
I754
tp1331
a(I416
I-8
tp1332
a(I312
I754
tp1333
a(I1404
I755
tp1334
a(I520
I-10
tp1335
a(I156
I754
tp1336
a(I1196
I-10
tp1337
a(I790
I69
tp1338
a(I1248
I-10
tp1339
a(I260
I755
tp1340
a(I1872
I754
tp1341
a(I1976
I-8
tp1342
a(I267
I410
tp1343
a(I2236
I-10
tp1344
a(I1404
I-8
tp1345
a(I988
I-8
tp1346
a(I1560
I-8
tp1347
a(I2392
I754
tp1348
a(I2830
I186
tp1349
a(I2926
I413
tp1350
a(I364
I-8
tp1351
a(I2756
I755
tp1352
a(I1349
I410
tp1353
a(I988
I-8
tp1354
a(I416
I-10
tp1355
a(I1976
I190
tp1356
a(I1300
I-8
tp1357
a(I2619
I524
tp1358
a(I572
I-8
tp1359
a(I312
I-10
tp1360
a(I2860
I-10
tp1361
a(I0
I-8
tp1362
a(I1820
I-10
tp1363
a(I260
I755
tp1364
a(I2132
I-8
tp1365
a(I988
I754
tp1366
a(I1782
I646
tp1367
a(I832
I754
tp1368
a(I1612
I-8
tp1369
a(I967
I186
tp1370
a(I1412
I524
tp1371
a(I2548
I754
tp1372
a(I2781
I413
tp1373
a(I0
I755
tp1374
a(I2548
I-8
tp1375
a(I2340
I-8
tp1376
a(I572
I755
tp1377
a(I2756
I-10
tp1378
a(I1404
I754
tp1379
a(I468
I-8
tp1380
a(I1352
I755
tp1381
a(I1404
I-8
tp1382
a(I416
I754
tp1383
a(I2184
I-8
tp1384
a(I1300
I-10
tp1385
a(I1987
I524
tp1386
a(I2769
I298
tp1387
a(I2652
I-10
tp1388
a(I2219
I76
tp1389
a(I2496
I754
tp1390
a(I1872
I-10
tp1391
a(I1814
I646
tp1392
a(I1040
I-8
tp1393
a(I2340
I755
tp1394
a(I362
I180
tp1395
a(I128
I410
tp1396
a(I1872
I754
tp1397
a(I2236
I-8
tp1398
a(I2787
I524
tp1399
a(I2184
I754
tp1400
a(I1664
I755
tp1401
a(I936
I754
tp1402
a(I2230
I190
tp1403
a(I2652
I-10
tp1404
a(I1612
I-8
tp1405
a(I1196
I755
tp1406
a(I780
I755
tp1407
a(I0
I-8
tp1408
a(I780
I754
tp1409
a(I260
I-8
tp1410
a(I2808
I755
tp1411
a(I1248
I755
tp1412
a(I2236
I754
tp1413
a(I2132
I754
tp1414
a(I1768
I754
tp1415
a(I2028
I-8
tp1416
a(I272
I180
tp1417
a(I1248
I754
tp1418
a(I118
I296
tp1419
a(I2604
I413
tp1420
a(I2288
I-10
tp1421
a(I104
I-10
tp1422
a(I2913
I73
tp1423
a(I1456
I-8
tp1424
a(I1456
I-10
tp1425
a(I156
I-8
tp1426
a(I2444
I754
tp1427
a(I2323
I413
tp1428
a(I2444
I754
tp1429
a(I296
I410
tp1430
a(I2964
I754
tp1431
a(I326
I410
tp1432
a(I2392
I-8
tp1433
a(I2548
I755
tp1434
a(I2496
I-8
tp1435
a(I1456
I754
tp1436
a(I2548
I754
tp1437
a(I1318
I297
tp1438
a(I1924
I-8
tp1439
a(I728
I-8
tp1440
a(I2219
I298
tp1441
a(I988
I-8
tp1442
a(I2080
I-8
tp1443
a(I0
I754
tp1444
a(I2444
I755
tp1445
a(I1924
I755
tp1446
a(I1976
I754
tp1447
a(I208
I-8
tp1448
a(I2236
I-8
tp1449
a(I884
I754
tp1450
a(I364
I754
tp1451
a(I1404
I-10
tp1452
a(I1768
I-8
tp1453
a(I1768
I754
tp1454
a(I1924
I754
tp1455
a(I2496
I-10
tp1456
a(I1741
I298
tp1457
a(I676
I-10
tp1458
a(I468
I754
tp1459
a(I1857
I191
tp1460
a(I1508
I754
tp1461
a(I1994
I75
tp1462
a(I1092
I754
tp1463
a(I780
I-10
tp1464
a(I312
I-8
tp1465
a(I2666
I413
tp1466
a(I1040
I754
tp1467
a(I520
I754
tp1468
a(I1820
I754
tp1469
a(I416
I755
tp1470
a(I2837
I647
tp1471
a(I676
I67
tp1472
a(I884
I755
tp1473
a(I743
I297
tp1474
a(I1300
I-10
tp1475
a(I2814
I524
tp1476
a(I2028
I755
tp1477
a(I2548
I-8
tp1478
a(I520
I-8
tp1479
a(I1040
I-8
tp1480
a(I2975
I524
tp1481
a(I2643
I298
tp1482
a(I2444
I-8
tp1483
a(I2236
I754
tp1484
a(I2294
I524
tp1485
a(I884
I-8
tp1486
a(I1352
I646
tp1487
a(I2236
I755
tp1488
a(I1219
I187
tp1489
a(I2825
I298
tp1490
a(I676
I-10
tp1491
a(I1924
I754
tp1492
a(I1506
I297
tp1493
a(I2790
I647
tp1494
a(I312
I754
tp1495
a(I52
I-8
tp1496
a(I1144
I754
tp1497
a(I0
I-10
tp1498
a(I1560
I-8
tp1499
a(I1196
I-8
tp1500
a(I2600
I754
tp1501
a(I2017
I411
tp1502
a(I156
I-8
tp1503
a(I1612
I754
tp1504
a(I1716
I-8
tp1505
a(I884
I754
tp1506
a(I2168
I298
tp1507
a(I2703
I647
tp1508
a(I1716
I755
tp1509
a(I2756
I755
tp1510
a(I2600
I754
tp1511
a(I2444
I-10
tp1512
a(I624
I755
tp1513
a(I468
I755
tp1514
a(I2236
I755
tp1515
a(I104
I754
tp1516
a(I2236
I-8
tp1517
a(I676
I754
tp1518
a(I832
I755
tp1519
a(I104
I754
tp1520
a(I416
I754
tp1521
a(I2184
I754
tp1522
a(I1872
I-8
tp1523
a(I2860
I755
tp1524
a(I2206
I524
tp1525
a(I1196
I-10
tp1526
a(I2860
I754
tp1527
a(I2236
I-10
tp1528
a(I208
I-8
tp1529
a(I1768
I755
tp1530
a(I1352
I754
tp1531
a(I1612
I754
tp1532
a(I1528
I297
tp1533
a(I1456
I-10
tp1534
a(I156
I-10
tp1535
a(I2912
I-10
tp1536
a(I2496
I-8
tp1537
a(I988
I754
tp1538
a(I728
I754
tp1539
a(I2392
I754
tp1540
a(I1612
I754
tp1541
a(I2051
I190
tp1542
a(I416
I-8
tp1543
a(I1352
I-8
tp1544
a(I2652
I755
tp1545
a(I2964
I754
tp1546
a(I965
I646
tp1547
a(I2808
I-10
tp1548
a(I2341
I524
tp1549
a(I832
I-8
tp1550
a(I2736
I72
tp1551
a(I52
I754
tp1552
a(I2075
I298
tp1553
a(I2548
I-10
tp1554
a(I2912
I-8
tp1555
a(I2
I296
tp1556
a(I572
I-10
tp1557
a(I780
I754
tp1558
a(I1612
I754
tp1559
a(I2666
I72
tp1560
a(I728
I-10
tp1561
a(I520
I-8
tp1562
a(I1664
I754
tp1563
a(I2808
I754
tp1564
a(I468
I754
tp1565
a(I2711
I298
tp1566
a(I104
I-8
tp1567
a(I1768
I-8
tp1568
a(I1925
I75
tp1569
a(I676
I-8
tp1570
a(I364
I754
tp1571
a(I1144
I755
tp1572
a(I1248
I754
tp1573
a(I1664
I754
tp1574
a(I2652
I754
tp1575
a(I2912
I-8
tp1576
a(I2625
I72
tp1577
a(I2303
I298
tp1578
a(I2652
I754
tp1579
a(I2912
I755
tp1580
a(I2184
I754
tp1581
a(I1976
I-10
tp1582
a(I2340
I755
tp1583
a(I1040
I-10
tp1584
a(I1508
I754
tp1585
a(I1096
I297
tp1586
a(I1040
I-8
tp1587
a(I572
I754
tp1588
a(I2366
I647
tp1589
a(I2028
I754
tp1590
a(I1189
I410
tp1591
a(I52
I-8
tp1592
a(I987
I410
tp1593
a(I780
I754
tp1594
a(I208
I755
tp1595
a(I1352
I754
tp1596
a(I1768
I-10
tp1597
a(I1456
I-8
tp1598
a(I1404
I-8
tp1599
a(I2808
I-8
tp1600
a(I260
I754
tp1601
a(I1300
I-8
tp1602
a(I416
I755
tp1603
a(I1816
I190
tp1604
a(I1768
I-8
tp1605
a(I1716
I-8
tp1606
a(I52
I-10
tp1607
a.(lp1
.(lp1
(I1128
I257
tp2
a(I2612
I258
tp3
a(I255
I712
tp4
a(I2340
I484
tp5
a(I515
I360
tp6
a(I910
I149
tp7
a(I2640
I33
tp8
a(I2133
I603
tp9
a(I1376
I477
tp10
a(I1970
I36
tp11
a(I2962
I485
tp12
a(I2868
I714
tp13
a(I2518
I480
tp14
a(I2553
I37
tp15
a(I2039
I145
tp16
a(I1141
I139
tp17
a(I2625
I606
tp18
a(I2585
I713
tp19
a(I1613
I241
tp20
a(I535
I259
tp21
a(I1714
I595
tp22
a(I1403
I706
tp23
a(I2217
I149
tp24
a(I2727
I486
tp25
a(I706
I356
tp26
a(I2002
I597
tp27
a(I1121
I372
tp28
a(I2896
I34
tp29
a(I2221
I372
tp30
a(I2616
I366
tp31
a(I2498
I607
tp32
a(I1801
I142
tp33
a(I2622
I480
tp34
a(I1609
I141
tp35
a(I1972
I705
tp36
a(I2724
I34
tp37
a(I2915
I609
tp38
a(I1227
I482
tp39
a(I52
I598
tp40
a(I2005
I482
tp41
a(I113
I367
tp42
a(I2218
I484
tp43
a(I1842
I595
tp44
a(I1899
I260
tp45
a(I2430
I254
tp46
a(I1623
I354
tp47
a(I1956
I368
tp48
a(I1435
I253
tp49
a(I1842
I705
tp50
a(I495
I713
tp51
a(I116
I709
tp52
a(I64
I257
tp53
a(I2720
I143
tp54
a(I1775
I262
tp55
a(I251
I257
tp56
a(I2870
I250
tp57
a(I2462
I35
tp58
a(I2526
I366
tp59
a(I1364
I375
tp60
a(I1765
I367
tp61
a(I1260
I709
tp62
a(I2745
I605
tp63
a(I2104
I254
tp64
a(I2900
I144
tp65
a(I1028
I146
tp66
a(I1678
I37
tp67
a(I823
I263
tp68
a(I1609
I472
tp69
a(I1712
I705
tp70
a(I1259
I141
tp71
a(I1248
I371
tp72
a(I2374
I605
tp73
a(I2553
I141
tp74
a(I1859
I480
tp75
a(I2457
I712
tp76
a(I312
I368
tp77
a(I113
I141
tp78
a(I2102
I705
tp79
a(I2805
I34
tp80
a(I1544
I707
tp81
a(I1372
I593
tp82
a(I1744
I481
tp83
a(I2725
I713
tp84
a(I2888
I364
tp85
a(I2336
I363
tp86
a(I1501
I604
tp87
a(I732
I709
tp88
a(I2815
I141
tp89
a(I2746
I257
tp90
a(I2851
I485
tp91
a(I1303
I260
tp92
a(I2219
I254
tp93
a(I1624
I144
tp94
a(I900
I357
tp95
a(I2758
I368
tp96
a(I2255
I704
tp97
a.(lp1
(I416
I230
tp2
a(I2117
I123
tp3
a(I1713
I341
tp4
a(I254
I115
tp5
a(I2962
I346
tp6
a(I24
I457
tp7
a(I749
I232
tp8
a(I23
I229
tp9
a(I2807
I686
tp10
a(I2479
I456
tp11
a(I1235
I570
tp12
a(I1646
I454
tp13
a(I2169
I456
tp14
a(I1889
I453
tp15
a(I2537
I232
tp16
a(I124
I572
tp17
a(I1718
I119
tp18
a(I2313
I684
tp19
a(I1318
I117
tp20
a(I1594
I122
tp21
a(I1699
I686
tp22
a(I2232
I573
tp23
a(I2031
I340
tp24
a(I1190
I-54
tp25
a(I2973
I683
tp26
a(I2867
I577
tp27
a(I1610
I574
tp28
a(I2171
I122
tp29
a(I1490
I453
tp30
a(I1871
I124
tp31
a(I1173
I686
tp32
a(I2948
I112
tp33
a(I2400
I347
tp34
a(I1590
I341
tp35
a(I1059
I342
tp36
a(I1811
I455
tp37
a(I2578
I118
tp38
a(I1006
I688
tp39
a(I996
I345
tp40
a(I1312
I686
tp41
a(I331
I229
tp42
a(I2266
I231
tp43
a(I1974
I230
tp44
a(I-111
I-44
tp45
a(I1646
I229
tp46
a(I-137
I178
tp47
a(I80
I684
tp48
a(I1388
I120
tp49
a.(I2651
I144
t.S'data/levels\\apartment.lvl'
p1
.