S'Apartment'
p1
.(I3000
I750
tp1
.(I1074
I717
tp1
.(lp1
(I1142
I702
tp2
a(I1141
I578
tp3
a(I3010
I506
tp4
a(I-10
I230
tp5
a(I3010
I598
tp6
a(I3010
I690
tp7
a(I3010
I460
tp8
a(I-10
I690
tp9
a(I-10
I736
tp10
a(I2439
I342
tp11
a(I1565
I483
tp12
a(I3010
I0
tp13
a(I-10
I598
tp14
a(I152
I552
tp15
a(I1268
I620
tp16
a(I-10
I644
tp17
a(I3010
I92
tp18
a(I1674
I311
tp19
a(I1565
I354
tp20
a(I1019
I228
tp21
a(I-10
I644
tp22
a(I3010
I230
tp23
a(I-10
I276
tp24
a(I3010
I460
tp25
a(I-10
I0
tp26
a(I150
I480
tp27
a(I-10
I644
tp28
a(I1565
I184
tp29
a(I151
I579
tp30
a(I3010
I276
tp31
a(I2617
I124
tp32
a(I2369
I272
tp33
a(I1141
I544
tp34
a(I2141
I439
tp35
a(I1636
I705
tp36
a(I3010
I368
tp37
a(I3010
I552
tp38
a(I-10
I644
tp39
a(I-10
I506
tp40
a(I1636
I732
tp41
a(I-10
I460
tp42
a(I3010
I230
tp43
a(I150
I500
tp44
a(I3010
I690
tp45
a(I3010
I690
tp46
a(I1565
I243
tp47
a(I2360
I672
tp48
a(I1295
I44
tp49
a(I1141
I499
tp50
a(I722
I272
tp51
a(I3010
I690
tp52
a(I-10
I736
tp53
a(I2289
I115
tp54
a(I2142
I17
tp55
a(I-10
I368
tp56
a(I3010
I414
tp57
a(I3010
I644
tp58
a(I2834
I590
tp59
a(I1141
I437
tp60
a(I1141
I520
tp61
a(I-10
I506
tp62
a(I-10
I552
tp63
a(I-10
I414
tp64
a(I-10
I598
tp65
a(I3010
I46
tp66
a(I2141
I498
tp67
a(I3010
I690
tp68
a(I3010
I276
tp69
a(I947
I687
tp70
a(I1565
I60
tp71
a(I3010
I46
tp72
a(I1636
I550
tp73
a(I3010
I552
tp74
a(I3010
I414
tp75
a(I1674
I343
tp76
a(I3010
I552
tp77
a(I2439
I482
tp78
a(I150
I439
tp79
a(I3010
I92
tp80
a(I-10
I736
tp81
a(I1352
I160
tp82
a(I3010
I736
tp83
a(I-10
I230
tp84
a(I3010
I322
tp85
a(I1141
I618
tp86
a(I-10
I506
tp87
a(I2142
I163
tp88
a(I2617
I97
tp89
a(I3010
I598
tp90
a(I1352
I97
tp91
a(I-10
I92
tp92
a(I-10
I736
tp93
a(I3010
I138
tp94
a(I-10
I690
tp95
a(I-10
I46
tp96
a(I1141
I454
tp97
a(I-10
I414
tp98
a(I-10
I46
tp99
a(I-10
I230
tp100
a(I-10
I138
tp101
a(I-10
I414
tp102
a(I-10
I138
tp103
a(I1019
I212
tp104
a(I-10
I644
tp105
a(I3010
I736
tp106
a(I2506
I212
tp107
a(I2439
I458
tp108
a(I3010
I552
tp109
a(I-10
I690
tp110
a(I1565
I40
tp111
a(I3010
I322
tp112
a(I-10
I598
tp113
a(I1850
I324
tp114
a(I808
I95
tp115
a(I-10
I46
tp116
a(I436
I93
tp117
a(I-10
I322
tp118
a(I3010
I644
tp119
a(I3010
I0
tp120
a(I-10
I460
tp121
a(I-10
I736
tp122
a(I-10
I368
tp123
a(I2142
I50
tp124
a(I-10
I0
tp125
a(I3010
I368
tp126
a(I-10
I0
tp127
a(I-10
I598
tp128
a(I1414
I45
tp129
a(I3010
I736
tp130
a(I383
I225
tp131
a(I1850
I377
tp132
a(I-10
I184
tp133
a(I3010
I0
tp134
a(I3010
I368
tp135
a(I3010
I368
tp136
a(I3010
I184
tp137
a(I-10
I552
tp138
a(I2142
I147
tp139
a(I3010
I506
tp140
a(I-10
I552
tp141
a(I-10
I0
tp142
a(I3010
I598
tp143
a(I-10
I368
tp144
a(I-10
I138
tp145
a(I2289
I146
tp146
a(I-10
I0
tp147
a(I-10
I46
tp148
a(I3010
I276
tp149
a(I3010
I276
tp150
a(I3010
I92
tp151
a(I3010
I368
tp152
a(I-10
I368
tp153
a(I1674
I458
tp154
a(I3010
I460
tp155
a(I2360
I712
tp156
a(I436
I154
tp157
a(I3010
I460
tp158
a(I-10
I736
tp159
a(I289
I92
tp160
a(I3010
I598
tp161
a(I2008
I246
tp162
a(I1019
I384
tp163
a(I-10
I460
tp164
a(I3010
I322
tp165
a(I3010
I184
tp166
a(I1674
I412
tp167
a(I1674
I100
tp168
a(I3010
I736
tp169
a(I1636
I593
tp170
a(I808
I115
tp171
a(I3010
I736
tp172
a(I3010
I92
tp173
a(I3010
I598
tp174
a(I2008
I218
tp175
a(I1565
I273
tp176
a(I-10
I92
tp177
a(I2141
I346
tp178
a(I-10
I552
tp179
a(I-10
I368
tp180
a(I-10
I0
tp181
a(I-10
I184
tp182
a(I1273
I-34
tp183
a(I3010
I322
tp184
a(I3010
I138
tp185
a(I-10
I322
tp186
a(I-10
I230
tp187
a(I722
I233
tp188
a(I1565
I116
tp189
a(I3010
I552
tp190
a(I3010
I414
tp191
a(I1674
I497
tp192
a(I2360
I733
tp193
a(I3010
I644
tp194
a(I1142
I676
tp195
a(I1268
I570
tp196
a(I3010
I138
tp197
a(I3010
I184
tp198
a(I3010
I276
tp199
a(I-10
I598
tp200
a(I1142
I734
tp201
a(I-10
I92
tp202
a(I3010
I230
tp203
a(I2506
I114
tp204
a(I436
I105
tp205
a(I3010
I644
tp206
a(I-10
I322
tp207
a(I-10
I690
tp208
a(I-10
I506
tp209
a(I-10
I552
tp210
a(I1565
I436
tp211
a(I3010
I322
tp212
a(I3010
I322
tp213
a(I1937
I164
tp214
a(I1565
I384
tp215
a(I-10
I690
tp216
a(I-10
I414
tp217
a(I3010
I0
tp218
a(I3010
I736
tp219
a(I-10
I414
tp220
a(I3010
I46
tp221
a(I2834
I551
tp222
a(I2384
I5
tp223
a(I1842
I20
tp224
a(I-10
I368
tp225
a(I436
I119
tp226
a(I3010
I46
tp227
a(I3010
I552
tp228
a(I3010
I276
tp229
a(I1674
I427
tp230
a(I1842
I48
tp231
a(I2384
I47
tp232
a(I3010
I276
tp233
a(I3010
I0
tp234
a(I2289
I100
tp235
a(I3010
I506
tp236
a(I-10
I322
tp237
a(I-10
I644
tp238
a(I1674
I169
tp239
a(I-10
I46
tp240
a(I-10
I184
tp241
a(I947
I673
tp242
a(I1565
I372
tp243
a(I947
I696
tp244
a(I3010
I506
tp245
a(I1850
I348
tp246
a(I3010
I644
tp247
a(I3010
I690
tp248
a(I-10
I368
tp249
a(I-10
I690
tp250
a(I2439
I497
tp251
a(I151
I613
tp252
a(I3010
I644
tp253
a(I-10
I276
tp254
a(I1936
I101
tp255
a(I3010
I598
tp256
a(I-10
I506
tp257
a(I-10
I368
tp258
a(I-10
I184
tp259
a(I3010
I506
tp260
a(I3010
I92
tp261
a(I3010
I230
tp262
a(I1565
I460
tp263
a(I-10
I138
tp264
a(I-10
I0
tp265
a(I3010
I690
tp266
a(I-10
I460
tp267
a(I2141
I324
tp268
a(I3010
I460
tp269
a(I3010
I92
tp270
a(I808
I157
tp271
a(I3010
I506
tp272
a(I3010
I92
tp273
a(I-10
I230
tp274
a(I-10
I92
tp275
a(I2617
I119
tp276
a(I-10
I230
tp277
a(I-10
I230
tp278
a(I-10
I690
tp279
a(I3010
I230
tp280
a(I1565
I156
tp281
a(I3010
I644
tp282
a(I2506
I272
tp283
a(I-10
I92
tp284
a(I3010
I736
tp285
a(I3010
I138
tp286
a(I3010
I184
tp287
a(I-10
I414
tp288
a(I3010
I322
tp289
a(I2506
I159
tp290
a(I2439
I387
tp291
a(I3010
I184
tp292
a(I-10
I276
tp293
a(I1295
I15
tp294
a(I-10
I46
tp295
a(I1674
I144
tp296
a(I3010
I138
tp297
a(I2141
I364
tp298
a(I1019
I347
tp299
a(I-10
I552
tp300
a(I3010
I552
tp301
a(I3010
I184
tp302
a(I-10
I506
tp303
a(I-10
I138
tp304
a(I-10
I0
tp305
a(I-10
I460
tp306
a(I-10
I184
tp307
a(I1674
I384
tp308
a(I2289
I164
tp309
a(I-10
I598
tp310
a(I3010
I46
tp311
a(I-10
I690
tp312
a(I1268
I593
tp313
a(I3010
I598
tp314
a(I289
I153
tp315
a(I-10
I276
tp316
a(I1674
I208
tp317
a(I1636
I672
tp318
a(I-10
I230
tp319
a(I-10
I92
tp320
a(I2439
I364
tp321
a(I1636
I618
tp322
a(I1937
I127
tp323
a(I3010
I0
tp324
a(I-10
I598
tp325
a(I3010
I506
tp326
a(I-10
I414
tp327
a(I-10
I276
tp328
a(I-10
I598
tp329
a(I-10
I552
tp330
a(I3010
I230
tp331
a(I1565
I497
tp332
a(I2369
I238
tp333
a(I3010
I46
tp334
a(I1636
I572
tp335
a(I3010
I184
tp336
a(I3010
I460
tp337
a(I3010
I368
tp338
a(I-10
I414
tp339
a(I3010
I736
tp340
a(I-10
I460
tp341
a(I1850
I385
tp342
a(I1565
I83
tp343
a(I1636
I689
tp344
a(I3010
I322
tp345
a(I1565
I323
tp346
a(I2008
I272
tp347
a(I-10
I138
tp348
a(I2439
I439
tp349
a(I383
I206
tp350
a(I3010
I690
tp351
a(I-10
I552
tp352
a(I2617
I159
tp353
a(I-10
I46
tp354
a(I-10
I736
tp355
a(I2834
I567
tp356
a(I-10
I644
tp357
a(I-10
I276
tp358
a(I2834
I621
tp359
a(I-10
I460
tp360
a(I1019
I323
tp361
a(I3010
I414
tp362
a(I-10
I184
tp363
a(I3010
I138
tp364
a(I2142
I102
tp365
a(I3010
I414
tp366
a(I1352
I129
tp367
a(I-10
I736
tp368
a(I947
I730
tp369
a(I2506
I98
tp370
a(I3010
I0
tp371
a(I722
I212
tp372
a(I3010
I414
tp373
a(I3010
I230
tp374
a(I3010
I460
tp375
a(I3010
I46
tp376
a(I1674
I234
tp377
a(I3010
I92
tp378
a(I1565
I214
tp379
a(I289
I111
tp380
a(I1141
I471
tp381
a(I3010
I552
tp382
a(I1019
I270
tp383
a(I3010
I414
tp384
a(I2272
I550
tp385
a(I-10
I46
tp386
a(I2439
I324
tp387
a(I-10
I276
tp388
a(I2272
I620
tp389
a(I3010
I138
tp390
a(I2141
I384
tp391
a(I2272
I595
tp392
a(I1414
I18
tp393
a(I3010
I368
tp394
a(I3010
I46
tp395
a(I-10
I322
tp396
a(I3010
I276
tp397
a(I3010
I368
tp398
a(I1674
I274
tp399
a(I150
I463
tp400
a(I3010
I506
tp401
a(I3010
I460
tp402
a(I-10
I322
tp403
a(I-10
I460
tp404
a(I-10
I92
tp405
a(I2369
I216
tp406
a(I-10
I138
tp407
a(I1565
I18
tp408
a(I-10
I184
tp409
a(I2141
I465
tp410
a(I-10
I276
tp411
a(I3010
I414
tp412
a(I3010
I184
tp413
a(I2506
I232
tp414
a(I3010
I230
tp415
a(I-10
I92
tp416
a(I1674
I119
tp417
a(I-10
I138
tp418
a(I2360
I697
tp419
a(I1268
I549
tp420
a(I-10
I322
tp421
a(I-10
I644
tp422
a(I3010
I0
tp423
a(I-10
I184
tp424
a(I-10
I506
tp425
a(I-10
I322
tp426
a(I383
I269
tp427
a(I3010
I138
tp428
a(I-10
I506
tp429
a(I3010
I598
tp430
a(I3010
I644
tp431
a.(lp1
(I1560
I755
tp2
a(I2703
I647
tp3
a(I2756
I-10
tp4
a(I113
I180
tp5
a(I2288
I755
tp6
a(I1768
I-10
tp7
a(I1612
I-10
tp8
a(I1439
I646
tp9
a(I2985
I647
tp10
a(I2958
I187
tp11
a(I2808
I754
tp12
a(I2028
I-8
tp13
a(I2704
I-8
tp14
a(I1367
I71
tp15
a(I52
I-10
tp16
a(I0
I754
tp17
a(I2219
I76
tp18
a(I572
I-8
tp19
a(I832
I755
tp20
a(I2981
I413
tp21
a(I1046
I186
tp22
a(I468
I754
tp23
a(I928
I186
tp24
a(I1426
I187
tp25
a(I1120
I186
tp26
a(I624
I-10
tp27
a(I2725
I413
tp28
a(I2028
I755
tp29
a(I743
I185
tp30
a(I2548
I754
tp31
a(I832
I-8
tp32
a(I2244
I413
tp33
a(I419
I296
tp34
a(I2236
I754
tp35
a(I83
I410
tp36
a(I260
I-10
tp37
a(I312
I754
tp38
a(I1172
I524
tp39
a(I1976
I190
tp40
a(I1664
I-10
tp41
a(I208
I-8
tp42
a(I2178
I190
tp43
a(I2964
I755
tp44
a(I2964
I-8
tp45
a(I2080
I-8
tp46
a(I156
I-8
tp47
a(I2132
I-8
tp48
a(I1612
I754
tp49
a(I2132
I-8
tp50
a(I2781
I413
tp51
a(I2341
I524
tp52
a(I364
I755
tp53
a(I1820
I754
tp54
a(I2010
I524
tp55
a(I2080
I-8
tp56
a(I2860
I755
tp57
a(I1248
I-8
tp58
a(I2652
I754
tp59
a(I2340
I-8
tp60
a(I2132
I-8
tp61
a(I312
I755
tp62
a(I624
I754
tp63
a(I156
I755
tp64
a(I2132
I754
tp65
a(I913
I297
tp66
a(I1144
I754
tp67
a(I936
I-8
tp68
a(I2600
I-8
tp69
a(I83
I639
tp70
a(I468
I754
tp71
a(I52
I755
tp72
a(I572
I-8
tp73
a(I52
I-10
tp74
a(I260
I-8
tp75
a(I1612
I755
tp76
a(I1439
I410
tp77
a(I468
I-8
tp78
a(I761
I68
tp79
a(I2079
I524
tp80
a(I2768
I186
tp81
a(I936
I-10
tp82
a(I2734
I647
tp83
a(I520
I-8
tp84
a(I364
I-8
tp85
a(I1716
I754
tp86
a(I728
I754
tp87
a(I2401
I524
tp88
a(I2209
I413
tp89
a(I312
I754
tp90
a(I2600
I-8
tp91
a(I1384
I524
tp92
a(I2837
I647
tp93
a(I1768
I-8
tp94
a(I520
I-10
tp95
a(I170
I410
tp96
a(I364
I-8
tp97
a(I1490
I524
tp98
a(I672
I410
tp99
a(I2236
I-8
tp100
a(I2166
I647
tp101
a(I832
I755
tp102
a(I2028
I-10
tp103
a(I52
I-8
tp104
a(I1040
I754
tp105
a(I1404
I-8
tp106
a(I1404
I755
tp107
a(I2496
I755
tp108
a(I2100
I298
tp109
a(I1743
I190
tp110
a(I1958
I191
tp111
a(I2184
I-10
tp112
a(I884
I-8
tp113
a(I2236
I754
tp114
a(I1560
I-8
tp115
a(I156
I755
tp116
a(I208
I755
tp117
a(I2982
I298
tp118
a(I2184
I-8
tp119
a(I2392
I754
tp120
a(I1404
I-8
tp121
a(I2893
I186
tp122
a(I1144
I755
tp123
a(I2132
I-8
tp124
a(I2080
I754
tp125
a(I2184
I755
tp126
a(I48
I296
tp127
a(I1352
I755
tp128
a(I1196
I754
tp129
a(I2548
I755
tp130
a(I2053
I412
tp131
a(I2843
I413
tp132
a(I1031
I410
tp133
a(I562
I410
tp134
a(I988
I-8
tp135
a(I2736
I72
tp136
a(I1812
I75
tp137
a(I780
I755
tp138
a(I1219
I187
tp139
a(I1664
I-8
tp140
a(I2028
I755
tp141
a(I416
I755
tp142
a(I1300
I-8
tp143
a(I2912
I754
tp144
a(I156
I-10
tp145
a(I2652
I-8
tp146
a(I1612
I-8
tp147
a(I832
I754
tp148
a(I1248
I754
tp149
a(I698
I410
tp150
a(I794
I297
tp151
a(I1300
I-10
tp152
a(I2326
I298
tp153
a(I1560
I-8
tp154
a(I2889
I524
tp155
a(I2923
I187
tp156
a(I520
I755
tp157
a(I1872
I-8
tp158
a(I2531
I524
tp159
a(I1248
I755
tp160
a(I2028
I-8
tp161
a(I312
I-8
tp162
a(I2496
I755
tp163
a(I2496
I-8
tp164
a(I1300
I-8
tp165
a(I236
I296
tp166
a(I1399
I187
tp167
a(I2444
I754
tp168
a(I416
I754
tp169
a(I312
I755
tp170
a(I1560
I754
tp171
a(I2
I296
tp172
a(I2406
I72
tp173
a(I104
I-8
tp174
a(I468
I-8
tp175
a(I1196
I-8
tp176
a(I1716
I755
tp177
a(I2808
I754
tp178
a(I2666
I72
tp179
a(I988
I754
tp180
a(I1412
I524
tp181
a(I2236
I-8
tp182
a(I2471
I647
tp183
a(I2406
I298
tp184
a(I2028
I754
tp185
a(I1456
I-8
tp186
a(I2928
I647
tp187
a(I2860
I754
tp188
a(I1196
I-8
tp189
a(I2912
I754
tp190
a(I2288
I754
tp191
a(I208
I755
tp192
a(I780
I755
tp193
a(I0
I755
tp194
a(I2087
I647
tp195
a(I2407
I413
tp196
a(I1092
I755
tp197
a(I2652
I754
tp198
a(I2496
I754
tp199
a(I362
I180
tp200
a(I104
I754
tp201
a(I2531
I72
tp202
a(I884
I754
tp203
a(I2481
I413
tp204
a(I1612
I755
tp205
a(I1040
I-10
tp206
a(I1560
I-10
tp207
a(I1358
I297
tp208
a(I104
I754
tp209
a(I572
I754
tp210
a(I312
I-8
tp211
a(I2184
I-8
tp212
a(I1924
I-10
tp213
a(I1716
I754
tp214
a(I1593
I74
tp215
a(I2860
I754
tp216
a(I2912
I-10
tp217
a(I2290
I647
tp218
a(I2383
I413
tp219
a(I487
I67
tp220
a(I676
I754
tp221
a(I676
I-10
tp222
a(I321
I180
tp223
a(I1924
I755
tp224
a(I1248
I754
tp225
a(I1508
I755
tp226
a(I2187
I76
tp227
a(I2184
I754
tp228
a(I2704
I755
tp229
a(I520
I754
tp230
a(I2288
I755
tp231
a(I156
I-8
tp232
a(I2288
I754
tp233
a(I104
I755
tp234
a(I104
I-8
tp235
a(I2054
I191
tp236
a(I2206
I524
tp237
a(I695
I296
tp238
a(I1118
I410
tp239
a(I676
I754
tp240
a(I2121
I191
tp241
a(I2652
I-10
tp242
a(I1643
I298
tp243
a(I2808
I-8
tp244
a(I364
I754
tp245
a(I468
I-10
tp246
a(I2912
I755
tp247
a(I1672
I524
tp248
a(I1872
I-8
tp249
a(I2392
I-10
tp250
a(I2236
I-8
tp251
a(I832
I754
tp252
a(I1976
I755
tp253
a(I1560
I754
tp254
a(I1470
I646
tp255
a(I1248
I646
tp256
a(I2017
I411
tp257
a(I1933
I524
tp258
a(I0
I-10
tp259
a(I908
I410
tp260
a(I1456
I754
tp261
a(I1040
I755
tp262
a(I2583
I186
tp263
a(I2392
I-8
tp264
a(I1513
I410
tp265
a(I2548
I754
tp266
a(I520
I-8
tp267
a(I1404
I755
tp268
a(I2028
I754
tp269
a(I260
I-8
tp270
a(I1508
I754
tp271
a(I468
I754
tp272
a(I1196
I755
tp273
a(I1612
I-8
tp274
a(I2139
I76
tp275
a(I2666
I413
tp276
a(I780
I-8
tp277
a(I1248
I755
tp278
a(I1654
I646
tp279
a(I1976
I755
tp280
a(I1741
I298
tp281
a(I2704
I-8
tp282
a(I1924
I754
tp283
a(I949
I297
tp284
a(I988
I754
tp285
a(I1768
I-8
tp286
a(I1404
I754
tp287
a(I2600
I-10
tp288
a(I1976
I754
tp289
a(I2577
I413
tp290
a(I884
I-8
tp291
a(I520
I-8
tp292
a(I1404
I-8
tp293
a(I1352
I-8
tp294
a(I1820
I-8
tp295
a(I2132
I-8
tp296
a(I2619
I524
tp297
a(I2028
I754
tp298
a(I2184
I755
tp299
a(I1816
I190
tp300
a(I1560
I-10
tp301
a(I2340
I-10
tp302
a(I2808
I755
tp303
a(I2355
I413
tp304
a(I1248
I754
tp305
a(I2752
I413
tp306
a(I1924
I754
tp307
a(I1340
I187
tp308
a(I1196
I754
tp309
a(I1872
I-8
tp310
a(I2704
I-8
tp311
a(I1456
I-10
tp312
a(I2234
I647
tp313
a(I1820
I-8
tp314
a(I1040
I-8
tp315
a(I2652
I754
tp316
a(I2349
I190
tp317
a(I312
I67
tp318
a(I1768
I754
tp319
a(I2236
I754
tp320
a(I2600
I754
tp321
a(I1196
I-8
tp322
a(I1812
I411
tp323
a(I728
I-8
tp324
a(I416
I755
tp325
a(I79
I526
tp326
a(I2860
I-8
tp327
a(I1092
I-10
tp328
a(I728
I-8
tp329
a(I1144
I754
tp330
a(I2028
I754
tp331
a(I104
I-8
tp332
a(I2964
I754
tp333
a(I1311
I410
tp334
a(I1820
I-8
tp335
a(I988
I754
tp336
a(I2651
I647
tp337
a(I1367
I187
tp338
a(I2704
I754
tp339
a(I1716
I-10
tp340
a(I1248
I754
tp341
a(I572
I-8
tp342
a(I2815
I413
tp343
a(I1760
I75
tp344
a(I2184
I-10
tp345
a(I2288
I-10
tp346
a(I2288
I-8
tp347
a(I2652
I-8
tp348
a(I1158
I410
tp349
a(I2366
I647
tp350
a(I150
I296
tp351
a(I1597
I189
tp352
a(I208
I754
tp353
a(I988
I-8
tp354
a(I832
I-8
tp355
a(I884
I754
tp356
a(I1716
I754
tp357
a(I2444
I-8
tp358
a(I1248
I-8
tp359
a(I2496
I755
tp360
a(I2496
I-10
tp361
a(I1716
I-8
tp362
a(I2860
I-8
tp363
a(I1388
I297
tp364
a(I1404
I754
tp365
a(I1768
I754
tp366
a(I2340
I754
tp367
a(I2560
I647
tp368
a(I2964
I755
tp369
a(I1872
I755
tp370
a(I2912
I-8
tp371
a(I1933
I647
tp372
a(I552
I67
tp373
a(I364
I-10
tp374
a(I1916
I411
tp375
a(I211
I410
tp376
a(I1040
I-8
tp377
a(I572
I754
tp378
a(I1560
I755
tp379
a(I2440
I298
tp380
a(I2221
I190
tp381
a(I1865
I411
tp382
a(I1664
I755
tp383
a(I2600
I754
tp384
a(I1987
I524
tp385
a(I2808
I-10
tp386
a(I2964
I754
tp387
a(I624
I755
tp388
a(I1404
I754
tp389
a(I2063
I412
tp390
a(I2184
I754
tp391
a(I2091
I75
tp392
a(I884
I-10
tp393
a(I1742
I524
tp394
a(I1144
I754
tp395
a(I52
I755
tp396
a(I2184
I-8
tp397
a(I416
I754
tp398
a(I208
I-8
tp399
a(I2444
I754
tp400
a(I2964
I754
tp401
a(I468
I755
tp402
a(I1763
I411
tp403
a(I2206
I647
tp404
a(I624
I-8
tp405
a(I1244
I297
tp406
a(I0
I754
tp407
a(I780
I-8
tp408
a(I156
I754
tp409
a(I-170
I201
tp410
a(I1144
I-10
tp411
a(I197
I296
tp412
a(I1508
I-10
tp413
a(I2756
I-8
tp414
a(I1924
I754
tp415
a(I2600
I755
tp416
a(I2757
I524
tp417
a(I2964
I755
tp418
a(I52
I755
tp419
a(I416
I-10
tp420
a(I417
I67
tp421
a(I1411
I646
tp422
a(I1144
I-8
tp423
a(I1092
I754
tp424
a(I1872
I754
tp425
a(I1508
I754
tp426
a(I1404
I-10
tp427
a(I1040
I755
tp428
a(I2496
I-8
tp429
a(I676
I67
tp430
a(I2064
I75
tp431
a(I461
I410
tp432
a(I1233
I410
tp433
a(I884
I-10
tp434
a(I1768
I-10
tp435
a(I2883
I647
tp436
a(I355
I410
tp437
a(I1664
I-8
tp438
a(I1924
I-8
tp439
a(I2964
I-8
tp440
a(I1925
I75
tp441
a(I936
I-8
tp442
a(I1508
I754
tp443
a(I1300
I-10
tp444
a(I468
I-10
tp445
a(I1352
I646
tp446
a(I1836
I411
tp447
a(I2080
I-10
tp448
a(I1976
I754
tp449
a(I2965
I73
tp450
a(I156
I755
tp451
a(I2964
I-8
tp452
a(I875
I410
tp453
a(I1871
I298
tp454
a(I2912
I-10
tp455
a(I2918
I524
tp456
a(I1300
I-8
tp457
a(I1716
I-10
tp458
a(I1924
I-10
tp459
a(I2756
I754
tp460
a(I1992
I411
tp461
a(I156
I-8
tp462
a(I208
I754
tp463
a(I988
I-8
tp464
a(I1704
I411
tp465
a(I1257
I187
tp466
a(I2600
I-8
tp467
a(I156
I754
tp468
a(I1612
I-10
tp469
a(I1092
I-8
tp470
a(I2496
I754
tp471
a(I572
I-10
tp472
a(I379
I296
tp473
a(I2860
I-10
tp474
a(I2392
I-8
tp475
a(I1560
I754
tp476
a(I2548
I-8
tp477
a(I676
I755
tp478
a(I728
I-10
tp479
a(I1602
I524
tp480
a(I2985
I73
tp481
a(I988
I755
tp482
a(I1820
I754
tp483
a(I2652
I755
tp484
a(I2503
I298
tp485
a(I520
I-8
tp486
a(I572
I-10
tp487
a(I2132
I754
tp488
a(I2080
I-8
tp489
a(I1456
I754
tp490
a(I104
I-8
tp491
a(I572
I755
tp492
a(I260
I755
tp493
a(I884
I754
tp494
a(I884
I-8
tp495
a(I1962
I524
tp496
a(I624
I-8
tp497
a(I2132
I754
tp498
a(I1248
I-8
tp499
a(I1820
I755
tp500
a(I1057
I646
tp501
a(I2236
I-10
tp502
a(I884
I-10
tp503
a(I2942
I187
tp504
a(I260
I754
tp505
a(I156
I-10
tp506
a(I1976
I-8
tp507
a(I2138
I191
tp508
a(I984
I186
tp509
a(I1664
I754
tp510
a(I2080
I755
tp511
a(I1872
I755
tp512
a(I1040
I-8
tp513
a(I2860
I754
tp514
a(I2392
I-8
tp515
a(I780
I755
tp516
a(I1352
I755
tp517
a(I1353
I524
tp518
a(I2860
I-8
tp519
a(I2184
I754
tp520
a(I2912
I755
tp521
a(I1889
I524
tp522
a(I364
I754
tp523
a(I1872
I-10
tp524
a(I2184
I-8
tp525
a(I572
I-8
tp526
a(I1768
I755
tp527
a(I1994
I75
tp528
a(I2288
I755
tp529
a(I1092
I-8
tp530
a(I2236
I-10
tp531
a(I18
I180
tp532
a(I2548
I754
tp533
a(I1248
I-10
tp534
a(I2080
I754
tp535
a(I1540
I524
tp536
a(I1144
I-10
tp537
a(I572
I-8
tp538
a(I2862
I186
tp539
a(I1196
I-10
tp540
a(I2099
I524
tp541
a(I728
I-8
tp542
a(I1286
I297
tp543
a(I2624
I647
tp544
a(I2652
I755
tp545
a(I1248
I754
tp546
a(I2548
I754
tp547
a(I780
I754
tp548
a(I1820
I755
tp549
a(I260
I755
tp550
a(I1144
I755
tp551
a(I1976
I754
tp552
a(I2288
I-8
tp553
a(I936
I-8
tp554
a(I1820
I754
tp555
a(I422
I410
tp556
a(I1200
I646
tp557
a(I2513
I647
tp558
a(I2425
I72
tp559
a(I1456
I754
tp560
a(I52
I-8
tp561
a(I2392
I-10
tp562
a(I1628
I410
tp563
a(I1300
I-10
tp564
a(I624
I754
tp565
a(I1639
I74
tp566
a(I1456
I-8
tp567
a(I2392
I754
tp568
a(I2323
I413
tp569
a(I2808
I-8
tp570
a(I2808
I755
tp571
a(I2184
I-8
tp572
a(I468
I-8
tp573
a(I780
I-8
tp574
a(I2964
I-10
tp575
a(I2756
I-8
tp576
a(I2236
I755
tp577
a(I2740
I186
tp578
a(I2639
I186
tp579
a(I728
I754
tp580
a(I1595
I646
tp581
a(I2964
I754
tp582
a(I1352
I-8
tp583
a(I1040
I-10
tp584
a(I2844
I524
tp585
a(I1872
I754
tp586
a(I1976
I-8
tp587
a(I1352
I-10
tp588
a(I364
I755
tp589
a(I2600
I755
tp590
a(I2548
I754
tp591
a(I1768
I754
tp592
a(I1300
I755
tp593
a(I1840
I75
tp594
a(I1352
I-10
tp595
a(I1416
I297
tp596
a(I967
I186
tp597
a(I1847
I646
tp598
a(I1103
I646
tp599
a(I2080
I755
tp600
a(I312
I-8
tp601
a(I1716
I755
tp602
a(I770
I410
tp603
a(I156
I754
tp604
a(I2548
I-8
tp605
a(I676
I754
tp606
a(I2677
I298
tp607
a(I2392
I-10
tp608
a(I2303
I298
tp609
a(I1458
I187
tp610
a(I2132
I-10
tp611
a(I1976
I-8
tp612
a(I2756
I-8
tp613
a(I2760
I647
tp614
a(I780
I-10
tp615
a(I1300
I755
tp616
a(I2860
I-8
tp617
a(I2756
I755
tp618
a(I624
I755
tp619
a(I1300
I754
tp620
a(I2080
I-8
tp621
a(I884
I755
tp622
a(I987
I410
tp623
a(I1768
I754
tp624
a(I1967
I647
tp625
a(I2858
I298
tp626
a(I2496
I-10
tp627
a(I936
I-8
tp628
a(I2394
I647
tp629
a(I2595
I647
tp630
a(I1664
I755
tp631
a(I1073
I410
tp632
a(I1393
I71
tp633
a(I676
I-10
tp634
a(I416
I755
tp635
a(I52
I-10
tp636
a(I0
I755
tp637
a(I2028
I-8
tp638
a(I2808
I-10
tp639
a(I468
I296
tp640
a(I988
I-8
tp641
a(I2340
I-8
tp642
a(I0
I754
tp643
a(I1924
I-8
tp644
a(I2756
I754
tp645
a(I1766
I524
tp646
a(I1739
I411
tp647
a(I728
I755
tp648
a(I520
I755
tp649
a(I2808
I755
tp650
a(I590
I67
tp651
a(I1040
I755
tp652
a(I638
I410
tp653
a(I104
I755
tp654
a(I2756
I-8
tp655
a(I326
I410
tp656
a(I2975
I187
tp657
a(I2600
I754
tp658
a(I2251
I298
tp659
a(I1508
I-10
tp660
a(I1352
I754
tp661
a(I520
I754
tp662
a(I1121
I646
tp663
a(I2036
I524
tp664
a(I2392
I754
tp665
a(I2513
I413
tp666
a(I1951
I298
tp667
a(I858
I186
tp668
a(I2643
I298
tp669
a(I2964
I-8
tp670
a(I1475
I410
tp671
a(I1768
I755
tp672
a(I1447
I297
tp673
a(I2964
I-10
tp674
a(I2288
I754
tp675
a(I1926
I298
tp676
a(I884
I755
tp677
a(I1508
I754
tp678
a(I213
I67
tp679
a(I1717
I524
tp680
a(I52
I754
tp681
a(I676
I754
tp682
a(I2790
I647
tp683
a(I2485
I72
tp684
a(I1924
I754
tp685
a(I2901
I413
tp686
a(I520
I754
tp687
a(I2609
I186
tp688
a(I780
I-10
tp689
a(I2926
I413
tp690
a(I728
I755
tp691
a(I2288
I754
tp692
a(I156
I754
tp693
a(I2860
I755
tp694
a(I341
I67
tp695
a(I2283
I298
tp696
a(I130
I526
tp697
a(I1040
I754
tp698
a(I1820
I754
tp699
a(I2496
I754
tp700
a(I1144
I-8
tp701
a(I572
I-10
tp702
a(I2562
I524
tp703
a(I2121
I413
tp704
a(I1782
I646
tp705
a(I2860
I-8
tp706
a(I364
I-10
tp707
a(I2652
I-8
tp708
a(I387
I410
tp709
a(I364
I-8
tp710
a(I208
I-10
tp711
a(I1768
I-8
tp712
a(I832
I-10
tp713
a(I2794
I298
tp714
a(I1404
I-8
tp715
a(I2825
I298
tp716
a(I567
I296
tp717
a(I208
I-8
tp718
a(I2860
I-10
tp719
a(I1924
I755
tp720
a(I2549
I413
tp721
a(I1664
I754
tp722
a(I2184
I754
tp723
a(I1352
I754
tp724
a(I1820
I-8
tp725
a(I1456
I-8
tp726
a(I1144
I-10
tp727
a(I2349
I298
tp728
a(I2132
I755
tp729
a(I1526
I646
tp730
a(I2288
I754
tp731
a(I1564
I646
tp732
a(I2756
I-10
tp733
a(I1300
I754
tp734
a(I2704
I754
tp735
a(I104
I-10
tp736
a(I1820
I754
tp737
a(I1612
I-10
tp738
a(I2321
I190
tp739
a(I1352
I-8
tp740
a(I1144
I-8
tp741
a(I2444
I754
tp742
a(I2219
I298
tp743
a(I988
I-10
tp744
a(I520
I754
tp745
a(I2704
I-8
tp746
a(I0
I-8
tp747
a(I2496
I754
tp748
a(I1716
I754
tp749
a(I2080
I755
tp750
a(I520
I754
tp751
a(I988
I754
tp752
a(I2543
I298
tp753
a(I1664
I755
tp754
a(I2548
I-10
tp755
a(I1164
I297
tp756
a(I364
I755
tp757
a(I988
I755
tp758
a(I1299
I646
tp759
a(I518
I67
tp760
a(I312
I-10
tp761
a(I2444
I-10
tp762
a(I780
I-8
tp763
a(I1664
I-8
tp764
a(I21
I639
tp765
a(I2288
I-8
tp766
a(I1664
I754
tp767
a(I743
I297
tp768
a(I2756
I-8
tp769
a(I2392
I755
tp770
a(I728
I-8
tp771
a(I2913
I73
tp772
a(I1716
I-8
tp773
a(I2600
I-10
tp774
a(I1872
I-8
tp775
a(I1317
I524
tp776
a(I2652
I-8
tp777
a(I1248
I-10
tp778
a(I1768
I-8
tp779
a(I2912
I754
tp780
a(I2392
I754
tp781
a(I2674
I186
tp782
a(I104
I754
tp783
a(I1300
I754
tp784
a(I312
I754
tp785
a(I1613
I410
tp786
a(I1872
I755
tp787
a(I1167
I646
tp788
a(I832
I-8
tp789
a(I2273
I190
tp790
a(I1845
I524
tp791
a(I1404
I754
tp792
a(I1349
I410
tp793
a(I10
I410
tp794
a(I208
I-8
tp795
a(I1300
I754
tp796
a(I1300
I754
tp797
a(I2548
I-8
tp798
a(I0
I-8
tp799
a(I2756
I754
tp800
a(I1560
I-8
tp801
a(I676
I-10
tp802
a(I1300
I755
tp803
a(I624
I-8
tp804
a(I1924
I754
tp805
a(I2808
I-10
tp806
a(I2912
I754
tp807
a(I2008
I411
tp808
a(I2501
I524
tp809
a(I52
I-8
tp810
a(I2955
I298
tp811
a(I2769
I298
tp812
a(I416
I754
tp813
a(I2080
I-10
tp814
a(I1664
I-8
tp815
a(I1924
I-8
tp816
a(I596
I410
tp817
a(I2964
I-8
tp818
a(I2814
I524
tp819
a(I1872
I-10
tp820
a(I2496
I754
tp821
a(I2731
I524
tp822
a(I2340
I-10
tp823
a(I2080
I754
tp824
a(I711
I67
tp825
a(I791
I185
tp826
a(I364
I-8
tp827
a(I998
I297
tp828
a(I936
I754
tp829
a(I624
I754
tp830
a(I2028
I755
tp831
a(I2704
I754
tp832
a(I1048
I297
tp833
a(I2611
I298
tp834
a(I1296
I187
tp835
a(I988
I755
tp836
a(I296
I410
tp837
a(I260
I-8
tp838
a(I128
I410
tp839
a(I780
I-10
tp840
a(I2592
I524
tp841
a(I367
I67
tp842
a(I2496
I-8
tp843
a(I936
I754
tp844
a(I0
I-10
tp845
a(I728
I754
tp846
a(I2028
I754
tp847
a(I936
I754
tp848
a(I2860
I755
tp849
a(I676
I-8
tp850
a(I519
I296
tp851
a(I175
I67
tp852
a(I1196
I754
tp853
a(I1092
I-10
tp854
a(I468
I754
tp855
a(I364
I-8
tp856
a(I312
I-8
tp857
a(I988
I-10
tp858
a(I2265
I524
tp859
a(I2699
I72
tp860
a(I2444
I-8
tp861
a(I1185
I524
tp862
a(I2288
I-10
tp863
a(I1196
I-10
tp864
a(I618
I296
tp865
a(I1380
I646
tp866
a(I52
I754
tp867
a(I2294
I524
tp868
a(I2444
I755
tp869
a(I364
I754
tp870
a(I1976
I-8
tp871
a(I2048
I647
tp872
a(I936
I755
tp873
a(I1716
I-8
tp874
a(I893
I186
tp875
a(I1144
I-8
tp876
a(I2652
I-8
tp877
a(I2578
I72
tp878
a(I1560
I-8
tp879
a(I260
I-8
tp880
a(I2704
I-10
tp881
a(I0
I755
tp882
a(I1248
I-8
tp883
a(I270
I296
tp884
a(I2860
I-10
tp885
a(I2860
I754
tp886
a(I998
I186
tp887
a(I676
I755
tp888
a(I1976
I755
tp889
a(I2625
I72
tp890
a(I2236
I-8
tp891
a(I884
I754
tp892
a(I828
I297
tp893
a(I1214
I297
tp894
a(I2392
I755
tp895
a(I728
I-8
tp896
a(I2848
I73
tp897
a(I104
I-8
tp898
a(I1976
I-10
tp899
a(I731
I410
tp900
a(I520
I-8
tp901
a(I260
I-10
tp902
a(I1820
I-10
tp903
a(I2704
I755
tp904
a(I52
I-8
tp905
a(I1612
I-8
tp906
a(I572
I755
tp907
a(I1664
I754
tp908
a(I1091
I186
tp909
a(I416
I754
tp910
a(I1596
I410
tp911
a(I1144
I754
tp912
a(I1508
I-8
tp913
a(I0
I-8
tp914
a(I364
I754
tp915
a(I1664
I754
tp916
a(I2028
I-8
tp917
a(I2704
I754
tp918
a(I2808
I-8
tp919
a(I2392
I755
tp920
a(I1612
I755
tp921
a(I1976
I754
tp922
a(I2912
I754
tp923
a(I2340
I755
tp924
a(I1508
I754
tp925
a(I260
I755
tp926
a(I1820
I-8
tp927
a(I0
I754
tp928
a(I780
I754
tp929
a(I780
I754
tp930
a(I1872
I-10
tp931
a(I1473
I297
tp932
a(I2444
I-8
tp933
a(I2704
I-10
tp934
a(I1585
I297
tp935
a(I2075
I298
tp936
a(I1352
I754
tp937
a(I2080
I754
tp938
a(I676
I754
tp939
a(I52
I754
tp940
a(I572
I755
tp941
a(I1300
I-8
tp942
a(I468
I-10
tp943
a(I2247
I76
tp944
a(I520
I-10
tp945
a(I2808
I754
tp946
a(I260
I-10
tp947
a(I1831
I524
tp948
a(I2256
I647
tp949
a(I536
I410
tp950
a(I2340
I-8
tp951
a(I1820
I-10
tp952
a(I2756
I-10
tp953
a(I624
I754
tp954
a(I1612
I754
tp955
a(I1040
I754
tp956
a(I1924
I-8
tp957
a(I728
I-10
tp958
a(I1552
I297
tp959
a(I2531
I186
tp960
a(I2600
I755
tp961
a(I1404
I-8
tp962
a(I260
I-8
tp963
a(I2019
I75
tp964
a(I416
I754
tp965
a(I645
I67
tp966
a(I2340
I755
tp967
a(I2009
I647
tp968
a(I728
I-10
tp969
a(I208
I754
tp970
a(I2704
I755
tp971
a(I1040
I754
tp972
a(I2652
I755
tp973
a(I1976
I-10
tp974
a(I2600
I-8
tp975
a(I2808
I754
tp976
a(I1451
I524
tp977
a(I1664
I-10
tp978
a(I2080
I-10
tp979
a(I1612
I-8
tp980
a(I2604
I413
tp981
a(I1528
I297
tp982
a(I22
I526
tp983
a(I1508
I-8
tp984
a(I2005
I298
tp985
a(I1040
I-8
tp986
a(I208
I-10
tp987
a(I1396
I410
tp988
a(I193
I180
tp989
a(I2756
I754
tp990
a(I156
I754
tp991
a(I1404
I755
tp992
a(I1976
I-10
tp993
a(I142
I67
tp994
a(I2132
I755
tp995
a(I1144
I-8
tp996
a(I156
I-10
tp997
a(I2080
I754
tp998
a(I312
I754
tp999
a(I2444
I755
tp1000
a(I1196
I755
tp1001
a(I312
I-10
tp1002
a(I1092
I755
tp1003
a(I2638
I413
tp1004
a(I2444
I-8
tp1005
a(I676
I-8
tp1006
a(I2340
I-8
tp1007
a(I2964
I-10
tp1008
a(I1456
I754
tp1009
a(I1820
I-10
tp1010
a(I130
I639
tp1011
a(I73
I67
tp1012
a(I2914
I298
tp1013
a(I2433
I647
tp1014
a(I1872
I-8
tp1015
a(I260
I754
tp1016
a(I790
I69
tp1017
a(I1546
I646
tp1018
a(I312
I755
tp1019
a(I1144
I755
tp1020
a(I2548
I755
tp1021
a(I1040
I-10
tp1022
a(I1248
I755
tp1023
a(I156
I-8
tp1024
a(I1092
I-10
tp1025
a(I936
I755
tp1026
a(I1318
I297
tp1027
a(I2704
I754
tp1028
a(I1716
I-8
tp1029
a(I1716
I-8
tp1030
a(I2236
I755
tp1031
a(I0
I-8
tp1032
a(I1456
I754
tp1033
a(I1456
I755
tp1034
a(I846
I410
tp1035
a(I1129
I297
tp1036
a(I1040
I754
tp1037
a(I1818
I298
tp1038
a(I1248
I524
tp1039
a(I1794
I524
tp1040
a(I2335
I647
tp1041
a(I2808
I754
tp1042
a(I2240
I524
tp1043
a(I624
I754
tp1044
a(I1456
I-10
tp1045
a(I832
I754
tp1046
a(I2673
I647
tp1047
a(I272
I180
tp1048
a(I1646
I189
tp1049
a(I1820
I755
tp1050
a(I312
I-10
tp1051
a(I1284
I524
tp1052
a(I2236
I-10
tp1053
a(I2444
I755
tp1054
a(I2457
I72
tp1055
a(I1893
I411
tp1056
a(I728
I755
tp1057
a(I1092
I-8
tp1058
a(I1092
I754
tp1059
a(I1300
I-8
tp1060
a(I1352
I-8
tp1061
a(I1560
I-10
tp1062
a(I1612
I754
tp1063
a(I1704
I190
tp1064
a(I1924
I-10
tp1065
a(I1456
I755
tp1066
a(I618
I67
tp1067
a(I2366
I298
tp1068
a(I1092
I-8
tp1069
a(I2503
I72
tp1070
a(I2787
I524
tp1071
a(I2944
I524
tp1072
a(I1092
I754
tp1073
a(I1872
I754
tp1074
a(I104
I755
tp1075
a(I2236
I754
tp1076
a(I936
I-10
tp1077
a(I1352
I754
tp1078
a(I416
I-8
tp1079
a(I1928
I191
tp1080
a(I1211
I524
tp1081
a(I676
I-8
tp1082
a(I2340
I754
tp1083
a(I2132
I754
tp1084
a(I520
I755
tp1085
a(I2830
I186
tp1086
a(I1662
I75
tp1087
a(I1009
I646
tp1088
a(I2548
I-8
tp1089
a(I2860
I754
tp1090
a(I1196
I-8
tp1091
a(I2954
I413
tp1092
a(I208
I754
tp1093
a(I2881
I73
tp1094
a(I149
I180
tp1095
a(I1248
I-8
tp1096
a(I1902
I75
tp1097
a(I2125
I298
tp1098
a(I2340
I754
tp1099
a(I2698
I413
tp1100
a(I1456
I-8
tp1101
a(I1352
I-10
tp1102
a(I2600
I754
tp1103
a(I676
I-8
tp1104
a(I1843
I298
tp1105
a(I2184
I754
tp1106
a(I1318
I70
tp1107
a(I1352
I754
tp1108
a(I2886
I298
tp1109
a(I832
I-10
tp1110
a(I1196
I-8
tp1111
a(I2548
I755
tp1112
a(I2431
I413
tp1113
a(I2080
I-8
tp1114
a(I232
I180
tp1115
a(I1708
I75
tp1116
a(I780
I754
tp1117
a(I312
I754
tp1118
a(I208
I-10
tp1119
a(I572
I754
tp1120
a(I1627
I297
tp1121
a(I1508
I-8
tp1122
a(I2964
I754
tp1123
a(I2869
I524
tp1124
a(I2707
I186
tp1125
a(I2168
I298
tp1126
a(I111
I410
tp1127
a(I2912
I-8
tp1128
a(I208
I754
tp1129
a(I1778
I190
tp1130
a(I832
I186
tp1131
a(I2815
I73
tp1132
a(I2236
I755
tp1133
a(I2664
I524
tp1134
a(I1092
I-8
tp1135
a(I1404
I-10
tp1136
a(I2496
I-8
tp1137
a(I2132
I-10
tp1138
a(I884
I754
tp1139
a(I936
I-10
tp1140
a(I1942
I411
tp1141
a(I936
I-8
tp1142
a(I2444
I-10
tp1143
a(I1976
I-8
tp1144
a(I416
I-8
tp1145
a(I2167
I413
tp1146
a(I2340
I755
tp1147
a(I1281
I410
tp1148
a(I104
I-10
tp1149
a(I936
I755
tp1150
a(I118
I296
tp1151
a(I2444
I754
tp1152
a(I2028
I-10
tp1153
a(I780
I-8
tp1154
a(I877
I297
tp1155
a(I2912
I-8
tp1156
a(I1857
I191
tp1157
a(I1896
I191
tp1158
a(I1814
I524
tp1159
a(I104
I754
tp1160
a(I2028
I-8
tp1161
a(I2123
I524
tp1162
a(I815
I410
tp1163
a(I2548
I-10
tp1164
a(I468
I755
tp1165
a(I208
I755
tp1166
a(I1768
I754
tp1167
a(I52
I-8
tp1168
a(I1150
I186
tp1169
a(I239
I410
tp1170
a(I728
I754
tp1171
a(I2968
I647
tp1172
a(I260
I754
tp1173
a(I2570
I298
tp1174
a(I2132
I755
tp1175
a(I506
I410
tp1176
a(I988
I-10
tp1177
a(I1456
I-10
tp1178
a(I2600
I-8
tp1179
a(I936
I754
tp1180
a(I2480
I524
tp1181
a(I2652
I754
tp1182
a(I1976
I754
tp1183
a(I1196
I754
tp1184
a(I624
I-10
tp1185
a(I1183
I187
tp1186
a(I2704
I-10
tp1187
a(I1456
I-8
tp1188
a(I2496
I-10
tp1189
a(I416
I-10
tp1190
a(I2600
I754
tp1191
a(I965
I646
tp1192
a(I624
I755
tp1193
a(I832
I-8
tp1194
a(I2756
I754
tp1195
a(I104
I-10
tp1196
a(I572
I754
tp1197
a(I391
I67
tp1198
a(I2743
I298
tp1199
a(I2036
I298
tp1200
a(I1508
I755
tp1201
a(I2711
I298
tp1202
a(I2392
I-8
tp1203
a(I1967
I298
tp1204
a(I2975
I524
tp1205
a(I2874
I413
tp1206
a(I832
I755
tp1207
a(I1712
I646
tp1208
a(I1196
I-10
tp1209
a(I2912
I-8
tp1210
a(I34
I639
tp1211
a(I884
I-8
tp1212
a(I2756
I755
tp1213
a(I312
I-8
tp1214
a(I832
I-8
tp1215
a(I1404
I754
tp1216
a(I676
I-8
tp1217
a(I1788
I411
tp1218
a(I2104
I412
tp1219
a(I2600
I-10
tp1220
a(I2369
I524
tp1221
a(I82
I296
tp1222
a(I1885
I646
tp1223
a(I468
I754
tp1224
a(I1631
I646
tp1225
a(I2236
I754
tp1226
a(I104
I754
tp1227
a(I1793
I298
tp1228
a(I2444
I754
tp1229
a(I1924
I755
tp1230
a(I2652
I754
tp1231
a(I1456
I755
tp1232
a(I2075
I191
tp1233
a(I416
I-8
tp1234
a(I208
I-8
tp1235
a(I2163
I524
tp1236
a(I52
I754
tp1237
a(I52
I754
tp1238
a(I1814
I646
tp1239
a(I28
I526
tp1240
a(I2184
I-10
tp1241
a(I2652
I-10
tp1242
a(I1948
I75
tp1243
a(I884
I755
tp1244
a(I1496
I646
tp1245
a(I1248
I-10
tp1246
a(I416
I-10
tp1247
a(I1096
I297
tp1248
a(I2288
I-8
tp1249
a(I1404
I-10
tp1250
a(I459
I67
tp1251
a(I2029
I191
tp1252
a(I624
I-10
tp1253
a(I1716
I-10
tp1254
a(I1508
I-10
tp1255
a(I1767
I298
tp1256
a(I1686
I646
tp1257
a(I2912
I-10
tp1258
a(I728
I754
tp1259
a(I1189
I410
tp1260
a(I416
I-8
tp1261
a(I1877
I75
tp1262
a(I1768
I755
tp1263
a(I364
I-10
tp1264
a(I1872
I754
tp1265
a(I1612
I-8
tp1266
a(I2444
I-8
tp1267
a(I364
I754
tp1268
a(I266
I67
tp1269
a(I936
I754
tp1270
a(I260
I754
tp1271
a(I156
I-8
tp1272
a(I2756
I755
tp1273
a(I832
I754
tp1274
a(I1092
I754
tp1275
a(I468
I-8
tp1276
a(I1506
I297
tp1277
a(I2268
I76
tp1278
a(I1901
I298
tp1279
a(I1751
I646
tp1280
a(I2236
I-8
tp1281
a(I14
I67
tp1282
a(I2912
I-8
tp1283
a(I1081
I646
tp1284
a(I0
I-8
tp1285
a(I0
I-10
tp1286
a(I624
I-8
tp1287
a(I2132
I-10
tp1288
a(I939
I410
tp1289
a(I2704
I-8
tp1290
a(I1560
I754
tp1291
a(I832
I-10
tp1292
a(I2392
I-8
tp1293
a(I1352
I755
tp1294
a(I2126
I647
tp1295
a(I988
I754
tp1296
a(I1560
I755
tp1297
a(I1705
I298
tp1298
a(I2288
I-10
tp1299
a(I572
I754
tp1300
a(I2548
I-10
tp1301
a(I1612
I754
tp1302
a(I2496
I-8
tp1303
a(I2652
I-10
tp1304
a(I42
I67
tp1305
a(I2808
I-8
tp1306
a(I73
I180
tp1307
a(I1872
I754
tp1308
a(I0
I754
tp1309
a(I1560
I-8
tp1310
a(I884
I-8
tp1311
a(I676
I755
tp1312
a(I2340
I754
tp1313
a(I2808
I-8
tp1314
a(I1768
I-8
tp1315
a(I1196
I754
tp1316
a(I1664
I-8
tp1317
a(I2766
I72
tp1318
a(I1144
I754
tp1319
a(I2444
I-10
tp1320
a(I1656
I524
tp1321
a(I414
I180
tp1322
a(I2340
I754
tp1323
a(I2940
I73
tp1324
a(I1716
I755
tp1325
a(I2796
I186
tp1326
a(I319
I296
tp1327
a(I1664
I-10
tp1328
a(I468
I-8
tp1329
a(I1508
I-8
tp1330
a(I624
I-8
tp1331
a(I1644
I410
tp1332
a(I1092
I755
tp1333
a(I1212
I646
tp1334
a(I520
I-10
tp1335
a(I1196
I755
tp1336
a(I780
I754
tp1337
a(I656
I296
tp1338
a(I2132
I754
tp1339
a(I832
I754
tp1340
a(I2290
I413
tp1341
a(I1768
I-10
tp1342
a(I2288
I-8
tp1343
a(I2392
I754
tp1344
a(I1924
I-8
tp1345
a(I1508
I-8
tp1346
a(I267
I410
tp1347
a(I1040
I-8
tp1348
a(I1716
I754
tp1349
a(I2340
I-8
tp1350
a(I1092
I754
tp1351
a(I2464
I298
tp1352
a(I468
I755
tp1353
a(I988
I-8
tp1354
a(I735
I68
tp1355
a(I2184
I755
tp1356
a(I2697
I524
tp1357
a(I260
I754
tp1358
a(I366
I296
tp1359
a(I2340
I-10
tp1360
a(I109
I67
tp1361
a(I1612
I754
tp1362
a(I2026
I298
tp1363
a(I1560
I754
tp1364
a(I1352
I-8
tp1365
a(I2548
I-8
tp1366
a(I416
I-8
tp1367
a(I1543
I410
tp1368
a(I1508
I755
tp1369
a(I2028
I-10
tp1370
a(I58
I410
tp1371
a(I2912
I755
tp1372
a(I2430
I524
tp1373
a(I2041
I75
tp1374
a.(lp1
.(lp1
(I2888
I364
tp2
a(I116
I709
tp3
a(I1121
I372
tp4
a(I2585
I713
tp5
a(I2498
I607
tp6
a(I2430
I254
tp7
a(I2640
I33
tp8
a(I1248
I371
tp9
a(I2553
I37
tp10
a(I2104
I254
tp11
a(I1259
I141
tp12
a(I2218
I484
tp13
a(I1801
I142
tp14
a(I2336
I363
tp15
a(I2553
I141
tp16
a(I2725
I713
tp17
a(I2518
I480
tp18
a(I2526
I366
tp19
a(I2217
I149
tp20
a(I1623
I354
tp21
a(I732
I709
tp22
a(I1364
I375
tp23
a(I2133
I603
tp24
a(I1544
I707
tp25
a(I2815
I141
tp26
a(I2758
I368
tp27
a(I1970
I36
tp28
a(I1435
I253
tp29
a(I1613
I241
tp30
a(I1609
I472
tp31
a(I1303
I260
tp32
a(I2870
I250
tp33
a(I1842
I595
tp34
a(I2625
I606
tp35
a(I1376
I477
tp36
a(I1260
I709
tp37
a(I251
I257
tp38
a(I1624
I144
tp39
a(I1899
I260
tp40
a(I2720
I143
tp41
a(I2221
I372
tp42
a(I64
I257
tp43
a(I1712
I705
tp44
a(I255
I712
tp45
a(I1859
I480
tp46
a(I2622
I480
tp47
a(I2915
I609
tp48
a(I2616
I366
tp49
a(I1609
I141
tp50
a(I2900
I144
tp51
a(I2746
I257
tp52
a(I2745
I605
tp53
a(I1028
I146
tp54
a(I52
I598
tp55
a(I1678
I37
tp56
a(I1842
I705
tp57
a(I823
I263
tp58
a(I1714
I595
tp59
a(I2724
I34
tp60
a(I2457
I712
tp61
a(I2462
I35
tp62
a(I1744
I481
tp63
a(I312
I368
tp64
a(I1128
I257
tp65
a(I2255
I704
tp66
a(I2868
I714
tp67
a(I2374
I605
tp68
a(I2102
I705
tp69
a(I2002
I597
tp70
a(I535
I259
tp71
a(I113
I367
tp72
a(I113
I141
tp73
a(I515
I360
tp74
a(I2851
I485
tp75
a(I910
I149
tp76
a(I1403
I706
tp77
a(I900
I357
tp78
a(I2039
I145
tp79
a(I1227
I482
tp80
a(I2340
I484
tp81
a(I1765
I367
tp82
a(I1775
I262
tp83
a(I2005
I482
tp84
a(I2727
I486
tp85
a(I2219
I254
tp86
a(I2896
I34
tp87
a(I1956
I368
tp88
a(I1501
I604
tp89
a(I1141
I139
tp90
a(I2962
I485
tp91
a(I1972
I705
tp92
a(I2612
I258
tp93
a(I706
I356
tp94
a(I1372
I593
tp95
a(I495
I713
tp96
a(I2805
I34
tp97
a.(lp1
(I-137
I178
tp2
a(I1312
I686
tp3
a(I1713
I341
tp4
a(I2962
I346
tp5
a(I1699
I686
tp6
a(I1590
I341
tp7
a(I2807
I686
tp8
a(I1235
I570
tp9
a(I2169
I456
tp10
a(I2537
I232
tp11
a(I1718
I119
tp12
a(I1318
I117
tp13
a(I331
I229
tp14
a(I2031
I340
tp15
a(I2973
I683
tp16
a(I1610
I574
tp17
a(I1490
I453
tp18
a(I1871
I124
tp19
a(I1173
I686
tp20
a(I2948
I112
tp21
a(I2400
I347
tp22
a(I1059
I342
tp23
a(I1811
I455
tp24
a(I2266
I231
tp25
a(I2578
I118
tp26
a(I1974
I230
tp27
a(I-111
I-44
tp28
a(I1646
I229
tp29
a(I80
I684
tp30
a(I1388
I120
tp31
a(I1006
I688
tp32
a(I749
I232
tp33
a(I416
I230
tp34
a(I2117
I123
tp35
a(I254
I115
tp36
a(I24
I457
tp37
a(I996
I345
tp38
a(I23
I229
tp39
a(I2479
I456
tp40
a(I1646
I454
tp41
a(I1889
I453
tp42
a(I124
I572
tp43
a(I2313
I684
tp44
a(I1594
I122
tp45
a(I2232
I573
tp46
a(I1190
I-54
tp47
a(I2867
I577
tp48
a(I2171
I122
tp49
a.(I2651
I144
t.