S'Apartment'
p1
.(I3000
I750
tp1
.(I1074
I717
tp1
.(lp1
(I3010
I460
tp2
a(I947
I696
tp3
a(I1937
I164
tp4
a(I3010
I552
tp5
a(I3010
I506
tp6
a(I1019
I270
tp7
a(I2360
I672
tp8
a(I2617
I159
tp9
a(I-10
I460
tp10
a(I3010
I322
tp11
a(I3010
I138
tp12
a(I1674
I274
tp13
a(I-10
I138
tp14
a(I2617
I119
tp15
a(I-10
I0
tp16
a(I3010
I460
tp17
a(I3010
I276
tp18
a(I3010
I230
tp19
a(I-10
I92
tp20
a(I3010
I276
tp21
a(I3010
I138
tp22
a(I-10
I138
tp23
a(I3010
I552
tp24
a(I-10
I644
tp25
a(I-10
I414
tp26
a(I3010
I414
tp27
a(I3010
I184
tp28
a(I1565
I372
tp29
a(I3010
I322
tp30
a(I3010
I598
tp31
a(I-10
I184
tp32
a(I3010
I46
tp33
a(I-10
I552
tp34
a(I2834
I590
tp35
a(I-10
I184
tp36
a(I3010
I368
tp37
a(I1636
I732
tp38
a(I1295
I15
tp39
a(I383
I269
tp40
a(I2142
I147
tp41
a(I3010
I368
tp42
a(I-10
I506
tp43
a(I-10
I92
tp44
a(I-10
I368
tp45
a(I-10
I276
tp46
a(I3010
I414
tp47
a(I3010
I368
tp48
a(I-10
I460
tp49
a(I2506
I232
tp50
a(I-10
I230
tp51
a(I-10
I368
tp52
a(I2439
I387
tp53
a(I1268
I570
tp54
a(I3010
I138
tp55
a(I1636
I550
tp56
a(I-10
I598
tp57
a(I2142
I102
tp58
a(I1636
I572
tp59
a(I947
I673
tp60
a(I3010
I322
tp61
a(I-10
I322
tp62
a(I2617
I97
tp63
a(I-10
I138
tp64
a(I1142
I702
tp65
a(I-10
I92
tp66
a(I3010
I690
tp67
a(I3010
I552
tp68
a(I-10
I368
tp69
a(I3010
I552
tp70
a(I3010
I0
tp71
a(I3010
I736
tp72
a(I3010
I276
tp73
a(I-10
I322
tp74
a(I3010
I276
tp75
a(I3010
I184
tp76
a(I-10
I230
tp77
a(I-10
I552
tp78
a(I3010
I230
tp79
a(I-10
I368
tp80
a(I2439
I342
tp81
a(I-10
I0
tp82
a(I3010
I460
tp83
a(I1636
I672
tp84
a(I-10
I276
tp85
a(I2506
I159
tp86
a(I3010
I46
tp87
a(I-10
I92
tp88
a(I3010
I46
tp89
a(I3010
I138
tp90
a(I3010
I46
tp91
a(I-10
I184
tp92
a(I436
I93
tp93
a(I2142
I163
tp94
a(I3010
I0
tp95
a(I289
I111
tp96
a(I383
I206
tp97
a(I-10
I506
tp98
a(I1565
I273
tp99
a(I-10
I184
tp100
a(I3010
I230
tp101
a(I2141
I364
tp102
a(I-10
I506
tp103
a(I-10
I322
tp104
a(I3010
I552
tp105
a(I3010
I92
tp106
a(I-10
I644
tp107
a(I2142
I17
tp108
a(I3010
I0
tp109
a(I3010
I414
tp110
a(I1674
I208
tp111
a(I3010
I644
tp112
a(I1565
I60
tp113
a(I3010
I736
tp114
a(I3010
I736
tp115
a(I-10
I138
tp116
a(I-10
I184
tp117
a(I3010
I460
tp118
a(I2369
I238
tp119
a(I436
I119
tp120
a(I-10
I46
tp121
a(I-10
I552
tp122
a(I3010
I460
tp123
a(I3010
I552
tp124
a(I2272
I595
tp125
a(I1565
I214
tp126
a(I-10
I276
tp127
a(I2439
I439
tp128
a(I3010
I230
tp129
a(I1850
I377
tp130
a(I3010
I92
tp131
a(I-10
I184
tp132
a(I3010
I46
tp133
a(I-10
I552
tp134
a(I-10
I46
tp135
a(I2289
I115
tp136
a(I-10
I690
tp137
a(I3010
I460
tp138
a(I1141
I544
tp139
a(I-10
I276
tp140
a(I-10
I414
tp141
a(I2360
I733
tp142
a(I-10
I138
tp143
a(I3010
I368
tp144
a(I947
I687
tp145
a(I1565
I243
tp146
a(I3010
I414
tp147
a(I1565
I497
tp148
a(I1674
I169
tp149
a(I-10
I506
tp150
a(I-10
I460
tp151
a(I1141
I618
tp152
a(I-10
I368
tp153
a(I3010
I92
tp154
a(I-10
I138
tp155
a(I1936
I101
tp156
a(I-10
I368
tp157
a(I-10
I276
tp158
a(I3010
I552
tp159
a(I3010
I0
tp160
a(I-10
I322
tp161
a(I3010
I368
tp162
a(I1019
I347
tp163
a(I808
I157
tp164
a(I1565
I354
tp165
a(I-10
I644
tp166
a(I2141
I465
tp167
a(I289
I153
tp168
a(I3010
I184
tp169
a(I1674
I497
tp170
a(I3010
I506
tp171
a(I1636
I705
tp172
a(I3010
I368
tp173
a(I-10
I690
tp174
a(I1019
I323
tp175
a(I3010
I230
tp176
a(I-10
I644
tp177
a(I3010
I414
tp178
a(I3010
I506
tp179
a(I1674
I234
tp180
a(I2008
I272
tp181
a(I1565
I18
tp182
a(I-10
I276
tp183
a(I1842
I20
tp184
a(I3010
I736
tp185
a(I-10
I92
tp186
a(I-10
I138
tp187
a(I-10
I0
tp188
a(I-10
I644
tp189
a(I-10
I552
tp190
a(I1141
I499
tp191
a(I3010
I92
tp192
a(I-10
I460
tp193
a(I3010
I92
tp194
a(I2008
I218
tp195
a(I1674
I311
tp196
a(I-10
I368
tp197
a(I3010
I690
tp198
a(I2834
I621
tp199
a(I150
I480
tp200
a(I2272
I550
tp201
a(I3010
I368
tp202
a(I1850
I324
tp203
a(I-10
I184
tp204
a(I3010
I598
tp205
a(I3010
I138
tp206
a(I2141
I439
tp207
a(I-10
I552
tp208
a(I3010
I690
tp209
a(I3010
I736
tp210
a(I-10
I552
tp211
a(I-10
I322
tp212
a(I-10
I598
tp213
a(I-10
I230
tp214
a(I-10
I598
tp215
a(I808
I95
tp216
a(I1565
I323
tp217
a(I3010
I644
tp218
a(I2384
I5
tp219
a(I1414
I45
tp220
a(I1141
I520
tp221
a(I-10
I230
tp222
a(I-10
I322
tp223
a(I1565
I436
tp224
a(I3010
I138
tp225
a(I3010
I460
tp226
a(I3010
I598
tp227
a(I3010
I92
tp228
a(I722
I272
tp229
a(I-10
I414
tp230
a(I-10
I46
tp231
a(I-10
I46
tp232
a(I1268
I593
tp233
a(I3010
I736
tp234
a(I-10
I138
tp235
a(I3010
I598
tp236
a(I3010
I598
tp237
a(I3010
I322
tp238
a(I-10
I0
tp239
a(I3010
I598
tp240
a(I-10
I276
tp241
a(I-10
I0
tp242
a(I-10
I736
tp243
a(I-10
I598
tp244
a(I3010
I506
tp245
a(I3010
I644
tp246
a(I3010
I322
tp247
a(I3010
I460
tp248
a(I-10
I506
tp249
a(I3010
I322
tp250
a(I2834
I551
tp251
a(I-10
I598
tp252
a(I-10
I506
tp253
a(I-10
I230
tp254
a(I1268
I549
tp255
a(I151
I579
tp256
a(I1674
I144
tp257
a(I1674
I384
tp258
a(I-10
I138
tp259
a(I-10
I690
tp260
a(I3010
I506
tp261
a(I-10
I92
tp262
a(I1565
I116
tp263
a(I2369
I272
tp264
a(I2141
I324
tp265
a(I-10
I276
tp266
a(I-10
I276
tp267
a(I-10
I506
tp268
a(I2289
I100
tp269
a(I436
I105
tp270
a(I1565
I40
tp271
a(I1352
I160
tp272
a(I1565
I156
tp273
a(I2141
I384
tp274
a(I1674
I458
tp275
a(I3010
I230
tp276
a(I1636
I689
tp277
a(I3010
I644
tp278
a(I2439
I497
tp279
a(I3010
I46
tp280
a(I-10
I414
tp281
a(I2141
I346
tp282
a(I2360
I697
tp283
a(I3010
I138
tp284
a(I-10
I46
tp285
a(I1273
I-34
tp286
a(I-10
I460
tp287
a(I1268
I620
tp288
a(I1295
I44
tp289
a(I3010
I276
tp290
a(I3010
I690
tp291
a(I2369
I216
tp292
a(I3010
I46
tp293
a(I3010
I0
tp294
a(I2506
I272
tp295
a(I722
I233
tp296
a(I2617
I124
tp297
a(I-10
I690
tp298
a(I-10
I644
tp299
a(I-10
I414
tp300
a(I3010
I322
tp301
a(I2506
I114
tp302
a(I-10
I736
tp303
a(I-10
I460
tp304
a(I-10
I0
tp305
a(I3010
I414
tp306
a(I289
I92
tp307
a(I1565
I83
tp308
a(I3010
I690
tp309
a(I-10
I690
tp310
a(I3010
I690
tp311
a(I1141
I454
tp312
a(I2439
I482
tp313
a(I1141
I471
tp314
a(I2272
I620
tp315
a(I-10
I414
tp316
a(I3010
I690
tp317
a(I808
I115
tp318
a(I152
I552
tp319
a(I-10
I92
tp320
a(I-10
I598
tp321
a(I3010
I598
tp322
a(I3010
I644
tp323
a(I-10
I230
tp324
a(I3010
I276
tp325
a(I-10
I414
tp326
a(I3010
I506
tp327
a(I-10
I736
tp328
a(I2834
I567
tp329
a(I3010
I506
tp330
a(I1352
I97
tp331
a(I-10
I322
tp332
a(I3010
I92
tp333
a(I722
I212
tp334
a(I1850
I385
tp335
a(I-10
I368
tp336
a(I-10
I690
tp337
a(I-10
I46
tp338
a(I-10
I690
tp339
a(I3010
I276
tp340
a(I1019
I384
tp341
a(I3010
I736
tp342
a(I1636
I593
tp343
a(I-10
I552
tp344
a(I3010
I414
tp345
a(I-10
I460
tp346
a(I2289
I164
tp347
a(I3010
I644
tp348
a(I-10
I322
tp349
a(I436
I154
tp350
a(I-10
I552
tp351
a(I3010
I322
tp352
a(I-10
I598
tp353
a(I2384
I47
tp354
a(I-10
I414
tp355
a(I2439
I458
tp356
a(I150
I439
tp357
a(I3010
I0
tp358
a(I-10
I460
tp359
a(I151
I613
tp360
a(I3010
I0
tp361
a(I2142
I50
tp362
a(I3010
I46
tp363
a(I2439
I324
tp364
a(I3010
I184
tp365
a(I-10
I506
tp366
a(I3010
I690
tp367
a(I-10
I322
tp368
a(I3010
I230
tp369
a(I3010
I138
tp370
a(I3010
I368
tp371
a(I1565
I184
tp372
a(I-10
I368
tp373
a(I3010
I184
tp374
a(I3010
I0
tp375
a(I1842
I48
tp376
a(I1142
I734
tp377
a(I-10
I690
tp378
a(I2506
I212
tp379
a(I2506
I98
tp380
a(I3010
I736
tp381
a(I3010
I644
tp382
a(I-10
I0
tp383
a(I-10
I644
tp384
a(I3010
I138
tp385
a(I3010
I184
tp386
a(I1141
I578
tp387
a(I3010
I552
tp388
a(I-10
I46
tp389
a(I1565
I460
tp390
a(I1674
I100
tp391
a(I3010
I414
tp392
a(I1565
I483
tp393
a(I3010
I690
tp394
a(I3010
I644
tp395
a(I3010
I460
tp396
a(I-10
I184
tp397
a(I-10
I690
tp398
a(I3010
I736
tp399
a(I-10
I644
tp400
a(I1019
I228
tp401
a(I2360
I712
tp402
a(I1937
I127
tp403
a(I1674
I427
tp404
a(I2439
I364
tp405
a(I-10
I598
tp406
a(I3010
I552
tp407
a(I947
I730
tp408
a(I-10
I414
tp409
a(I1850
I348
tp410
a(I3010
I598
tp411
a(I-10
I736
tp412
a(I3010
I644
tp413
a(I-10
I46
tp414
a(I-10
I736
tp415
a(I3010
I230
tp416
a(I1674
I412
tp417
a(I3010
I46
tp418
a(I150
I500
tp419
a(I3010
I598
tp420
a(I3010
I506
tp421
a(I-10
I460
tp422
a(I-10
I230
tp423
a(I2008
I246
tp424
a(I1141
I437
tp425
a(I-10
I736
tp426
a(I1674
I119
tp427
a(I1636
I618
tp428
a(I3010
I276
tp429
a(I-10
I644
tp430
a(I2141
I498
tp431
a(I1674
I343
tp432
a(I2289
I146
tp433
a(I-10
I736
tp434
a(I-10
I736
tp435
a(I3010
I368
tp436
a(I3010
I506
tp437
a(I1565
I384
tp438
a(I-10
I598
tp439
a(I383
I225
tp440
a(I-10
I92
tp441
a(I1414
I18
tp442
a(I3010
I92
tp443
a(I3010
I322
tp444
a(I-10
I46
tp445
a(I3010
I92
tp446
a(I3010
I184
tp447
a(I3010
I184
tp448
a(I1142
I676
tp449
a(I3010
I230
tp450
a(I-10
I506
tp451
a(I150
I463
tp452
a(I-10
I0
tp453
a(I-10
I230
tp454
a(I-10
I184
tp455
a(I-10
I0
tp456
a(I-10
I230
tp457
a(I3010
I0
tp458
a(I-10
I92
tp459
a(I-10
I736
tp460
a(I3010
I184
tp461
a(I1019
I212
tp462
a(I3010
I276
tp463
a(I3010
I414
tp464
a(I1352
I129
tp465
a.(lp1
(I780
I754
tp2
a(I1872
I754
tp3
a(I2652
I-8
tp4
a(I2340
I755
tp5
a(I988
I754
tp6
a(I1508
I754
tp7
a(I2184
I754
tp8
a(I2444
I754
tp9
a(I1300
I-8
tp10
a(I2652
I-8
tp11
a(I1560
I754
tp12
a(I208
I755
tp13
a(I536
I410
tp14
a(I1300
I-8
tp15
a(I1412
I524
tp16
a(I1353
I524
tp17
a(I2982
I298
tp18
a(I832
I754
tp19
a(I1496
I646
tp20
a(I2236
I-8
tp21
a(I1508
I-8
tp22
a(I2944
I524
tp23
a(I2184
I-8
tp24
a(I520
I-10
tp25
a(I1404
I-10
tp26
a(I156
I755
tp27
a(I1793
I298
tp28
a(I2392
I754
tp29
a(I379
I296
tp30
a(I416
I-8
tp31
a(I1976
I-8
tp32
a(I624
I754
tp33
a(I156
I-10
tp34
a(I52
I-10
tp35
a(I1404
I-8
tp36
a(I1404
I754
tp37
a(I34
I639
tp38
a(I1248
I-8
tp39
a(I2918
I524
tp40
a(I2340
I-8
tp41
a(I2704
I-8
tp42
a(I1656
I524
tp43
a(I884
I-10
tp44
a(I1612
I-8
tp45
a(I208
I-10
tp46
a(I1831
I524
tp47
a(I936
I755
tp48
a(I884
I-10
tp49
a(I988
I754
tp50
a(I468
I755
tp51
a(I698
I410
tp52
a(I2942
I187
tp53
a(I1092
I755
tp54
a(I2652
I-10
tp55
a(I2740
I186
tp56
a(I1820
I755
tp57
a(I1976
I-8
tp58
a(I260
I-8
tp59
a(I2704
I-10
tp60
a(I2958
I187
tp61
a(I1768
I754
tp62
a(I1456
I754
tp63
a(I2860
I754
tp64
a(I2444
I-8
tp65
a(I1281
I410
tp66
a(I1031
I410
tp67
a(I52
I-8
tp68
a(I936
I-8
tp69
a(I1388
I297
tp70
a(I624
I-8
tp71
a(I520
I-8
tp72
a(I2912
I-10
tp73
a(I52
I-8
tp74
a(I18
I180
tp75
a(I998
I186
tp76
a(I2028
I-8
tp77
a(I520
I755
tp78
a(I2028
I754
tp79
a(I1560
I-10
tp80
a(I2132
I754
tp81
a(I567
I296
tp82
a(I728
I754
tp83
a(I676
I755
tp84
a(I2288
I-8
tp85
a(I936
I754
tp86
a(I2080
I754
tp87
a(I1508
I755
tp88
a(I1508
I-8
tp89
a(I731
I410
tp90
a(I1196
I-8
tp91
a(I1976
I755
tp92
a(I2028
I-8
tp93
a(I949
I297
tp94
a(I2496
I754
tp95
a(I1475
I410
tp96
a(I83
I639
tp97
a(I1893
I411
tp98
a(I1664
I-10
tp99
a(I312
I67
tp100
a(I1144
I-8
tp101
a(I1196
I-8
tp102
a(I1144
I754
tp103
a(I52
I-8
tp104
a(I519
I296
tp105
a(I208
I-8
tp106
a(I104
I754
tp107
a(I2756
I754
tp108
a(I1612
I-10
tp109
a(I1352
I755
tp110
a(I1248
I-8
tp111
a(I2026
I298
tp112
a(I2392
I-10
tp113
a(I1976
I-10
tp114
a(I1768
I754
tp115
a(I520
I-8
tp116
a(I2392
I-10
tp117
a(I104
I755
tp118
a(I364
I755
tp119
a(I1248
I524
tp120
a(I928
I186
tp121
a(I1244
I297
tp122
a(I780
I754
tp123
a(I2234
I647
tp124
a(I1349
I410
tp125
a(I832
I755
tp126
a(I208
I755
tp127
a(I1456
I-10
tp128
a(I2496
I755
tp129
a(I2964
I-8
tp130
a(I2236
I754
tp131
a(I1508
I-8
tp132
a(I1664
I-8
tp133
a(I2808
I754
tp134
a(I2548
I754
tp135
a(I2808
I754
tp136
a(I780
I-8
tp137
a(I2392
I-10
tp138
a(I2132
I-10
tp139
a(I0
I755
tp140
a(I1040
I-10
tp141
a(I1768
I-10
tp142
a(I1404
I754
tp143
a(I2964
I-10
tp144
a(I1317
I524
tp145
a(I0
I-8
tp146
a(I1040
I-8
tp147
a(I2652
I-8
tp148
a(I1768
I-10
tp149
a(I2053
I412
tp150
a(I468
I-8
tp151
a(I572
I754
tp152
a(I780
I-8
tp153
a(I2652
I755
tp154
a(I1552
I297
tp155
a(I780
I754
tp156
a(I936
I-8
tp157
a(I1248
I-8
tp158
a(I2125
I298
tp159
a(I2444
I-8
tp160
a(I1933
I647
tp161
a(I2843
I413
tp162
a(I1299
I646
tp163
a(I967
I186
tp164
a(I1526
I646
tp165
a(I1976
I-8
tp166
a(I1196
I754
tp167
a(I2236
I-8
tp168
a(I2288
I-8
tp169
a(I2407
I413
tp170
a(I2496
I755
tp171
a(I2444
I755
tp172
a(I2912
I-8
tp173
a(I1716
I-10
tp174
a(I1118
I410
tp175
a(I416
I754
tp176
a(I1994
I75
tp177
a(I1508
I-8
tp178
a(I2288
I755
tp179
a(I1716
I754
tp180
a(I2830
I186
tp181
a(I2619
I524
tp182
a(I832
I-10
tp183
a(I2485
I72
tp184
a(I2600
I-10
tp185
a(I2734
I647
tp186
a(I416
I-8
tp187
a(I562
I410
tp188
a(I1612
I-8
tp189
a(I52
I754
tp190
a(I676
I-10
tp191
a(I2080
I755
tp192
a(I988
I755
tp193
a(I728
I-8
tp194
a(I2652
I754
tp195
a(I1092
I-8
tp196
a(I2080
I-8
tp197
a(I1628
I410
tp198
a(I2964
I-8
tp199
a(I988
I-8
tp200
a(I1976
I755
tp201
a(I2283
I298
tp202
a(I1951
I298
tp203
a(I913
I297
tp204
a(I1284
I524
tp205
a(I260
I-10
tp206
a(I52
I755
tp207
a(I884
I-8
tp208
a(I79
I526
tp209
a(I2496
I754
tp210
a(I2808
I-10
tp211
a(I2600
I-10
tp212
a(I1612
I755
tp213
a(I2600
I754
tp214
a(I1196
I-8
tp215
a(I1742
I524
tp216
a(I1704
I411
tp217
a(I1560
I-8
tp218
a(I2736
I72
tp219
a(I156
I754
tp220
a(I193
I180
tp221
a(I2583
I186
tp222
a(I1595
I646
tp223
a(I2808
I755
tp224
a(I2912
I-8
tp225
a(I2184
I-10
tp226
a(I846
I410
tp227
a(I832
I755
tp228
a(I468
I755
tp229
a(I1352
I754
tp230
a(I1196
I754
tp231
a(I2964
I-8
tp232
a(I1812
I75
tp233
a(I832
I-8
tp234
a(I2392
I-8
tp235
a(I2860
I754
tp236
a(I2570
I298
tp237
a(I2531
I524
tp238
a(I2080
I-10
tp239
a(I2028
I-8
tp240
a(I1768
I-10
tp241
a(I2964
I754
tp242
a(I2340
I754
tp243
a(I2860
I-8
tp244
a(I1976
I-8
tp245
a(I2496
I-10
tp246
a(I1040
I754
tp247
a(I468
I-10
tp248
a(I2860
I-8
tp249
a(I1393
I71
tp250
a(I1196
I-8
tp251
a(I1546
I646
tp252
a(I2703
I647
tp253
a(I1987
I524
tp254
a(I2236
I-8
tp255
a(I260
I-8
tp256
a(I2913
I73
tp257
a(I2219
I298
tp258
a(I1857
I191
tp259
a(I416
I755
tp260
a(I884
I-8
tp261
a(I1144
I754
tp262
a(I1716
I755
tp263
a(I2184
I754
tp264
a(I988
I754
tp265
a(I2808
I-8
tp266
a(I2099
I524
tp267
a(I1612
I754
tp268
a(I260
I755
tp269
a(I1092
I-8
tp270
a(I2168
I190
tp271
a(I2954
I413
tp272
a(I2881
I73
tp273
a(I1627
I297
tp274
a(I1300
I754
tp275
a(I2548
I-10
tp276
a(I260
I-10
tp277
a(I1456
I-8
tp278
a(I936
I-10
tp279
a(I170
I410
tp280
a(I156
I754
tp281
a(I884
I754
tp282
a(I618
I296
tp283
a(I1901
I298
tp284
a(I1716
I-10
tp285
a(I1872
I754
tp286
a(I104
I-8
tp287
a(I1872
I-10
tp288
a(I1300
I-10
tp289
a(I884
I-8
tp290
a(I1091
I186
tp291
a(I1820
I-10
tp292
a(I2860
I754
tp293
a(I364
I754
tp294
a(I1404
I-8
tp295
a(I1924
I-10
tp296
a(I387
I410
tp297
a(I1717
I524
tp298
a(I761
I68
tp299
a(I1924
I-10
tp300
a(I1404
I755
tp301
a(I461
I410
tp302
a(I572
I755
tp303
a(I2704
I754
tp304
a(I936
I754
tp305
a(I1877
I75
tp306
a(I2704
I755
tp307
a(I2290
I647
tp308
a(I1976
I-8
tp309
a(I676
I755
tp310
a(I884
I754
tp311
a(I2912
I755
tp312
a(I149
I180
tp313
a(I2860
I-8
tp314
a(I1300
I754
tp315
a(I2666
I413
tp316
a(I52
I-8
tp317
a(I1121
I646
tp318
a(I312
I755
tp319
a(I272
I180
tp320
a(I2244
I413
tp321
a(I1924
I754
tp322
a(I1196
I-8
tp323
a(I2028
I755
tp324
a(I676
I-10
tp325
a(I1311
I410
tp326
a(I104
I754
tp327
a(I2704
I-10
tp328
a(I2
I296
tp329
a(I1992
I411
tp330
a(I1057
I646
tp331
a(I735
I68
tp332
a(I0
I754
tp333
a(I2080
I755
tp334
a(I2005
I298
tp335
a(I0
I-10
tp336
a(I1820
I-8
tp337
a(I1766
I524
tp338
a(I2869
I524
tp339
a(I2236
I755
tp340
a(I52
I-10
tp341
a(I416
I754
tp342
a(I936
I-8
tp343
a(I2444
I754
tp344
a(I312
I754
tp345
a(I572
I-8
tp346
a(I239
I410
tp347
a(I2889
I524
tp348
a(I1300
I-10
tp349
a(I656
I296
tp350
a(I0
I754
tp351
a(I988
I754
tp352
a(I2548
I754
tp353
a(I1352
I-8
tp354
a(I936
I-8
tp355
a(I2009
I647
tp356
a(I2548
I-8
tp357
a(I1040
I-8
tp358
a(I2394
I647
tp359
a(I1318
I70
tp360
a(I2433
I647
tp361
a(I743
I297
tp362
a(I572
I754
tp363
a(I780
I755
tp364
a(I2100
I298
tp365
a(I0
I-8
tp366
a(I104
I-8
tp367
a(I2964
I755
tp368
a(I832
I-10
tp369
a(I142
I67
tp370
a(I1560
I754
tp371
a(I1639
I74
tp372
a(I1144
I-10
tp373
a(I1976
I754
tp374
a(I468
I754
tp375
a(I2860
I754
tp376
a(I2028
I754
tp377
a(I2023
I190
tp378
a(I1404
I-10
tp379
a(I1612
I-8
tp380
a(I2209
I413
tp381
a(I1092
I754
tp382
a(I1248
I-10
tp383
a(I364
I-8
tp384
a(I1708
I75
tp385
a(I1612
I754
tp386
a(I1924
I-10
tp387
a(I2236
I-10
tp388
a(I2444
I754
tp389
a(I1716
I754
tp390
a(I208
I754
tp391
a(I2051
I190
tp392
a(I1543
I410
tp393
a(I2756
I-8
tp394
a(I2080
I754
tp395
a(I2964
I754
tp396
a(I1560
I-8
tp397
a(I1404
I-8
tp398
a(I1092
I755
tp399
a(I1976
I754
tp400
a(I1593
I74
tp401
a(I1300
I-8
tp402
a(I1092
I754
tp403
a(I1768
I755
tp404
a(I414
I180
tp405
a(I1416
I297
tp406
a(I2548
I754
tp407
a(I2604
I413
tp408
a(I2815
I413
tp409
a(I1924
I-8
tp410
a(I208
I755
tp411
a(I2326
I298
tp412
a(I1212
I646
tp413
a(I42
I67
tp414
a(I2639
I186
tp415
a(I1847
I646
tp416
a(I2019
I75
tp417
a(I1585
I297
tp418
a(I1814
I524
tp419
a(I1967
I647
tp420
a(I2600
I754
tp421
a(I2080
I754
tp422
a(I2600
I-8
tp423
a(I2548
I-8
tp424
a(I2184
I754
tp425
a(I1540
I524
tp426
a(I260
I-10
tp427
a(I2704
I754
tp428
a(I1384
I524
tp429
a(I211
I410
tp430
a(I2815
I73
tp431
a(I2401
I524
tp432
a(I2028
I755
tp433
a(I2652
I-8
tp434
a(I312
I-8
tp435
a(I260
I754
tp436
a(I2652
I-10
tp437
a(I2184
I-8
tp438
a(I2860
I-10
tp439
a(I572
I-10
tp440
a(I520
I-8
tp441
a(I1404
I-8
tp442
a(I1092
I-8
tp443
a(I743
I185
tp444
a(I1976
I754
tp445
a(I468
I754
tp446
a(I728
I755
tp447
a(I2392
I-8
tp448
a(I208
I-8
tp449
a(I1092
I754
tp450
a(I1196
I754
tp451
a(I2028
I754
tp452
a(I1447
I297
tp453
a(I1631
I646
tp454
a(I2392
I755
tp455
a(I270
I296
tp456
a(I1560
I754
tp457
a(I2303
I298
tp458
a(I572
I-8
tp459
a(I2964
I-8
tp460
a(I2756
I-8
tp461
a(I1820
I754
tp462
a(I1794
I524
tp463
a(I1426
I187
tp464
a(I1612
I755
tp465
a(I0
I754
tp466
a(I104
I754
tp467
a(I1820
I-8
tp468
a(I10
I410
tp469
a(I1712
I646
tp470
a(I780
I755
tp471
a(I2600
I-8
tp472
a(I875
I410
tp473
a(I2366
I647
tp474
a(I267
I410
tp475
a(I2766
I72
tp476
a(I1508
I754
tp477
a(I1768
I754
tp478
a(I1451
I524
tp479
a(I2652
I754
tp480
a(I2236
I-8
tp481
a(I2028
I-8
tp482
a(I1248
I755
tp483
a(I1612
I-10
tp484
a(I2063
I412
tp485
a(I150
I296
tp486
a(I2652
I-8
tp487
a(I2496
I754
tp488
a(I2704
I755
tp489
a(I2123
I524
tp490
a(I1612
I-8
tp491
a(I2883
I647
tp492
a(I2028
I-8
tp493
a(I1508
I-8
tp494
a(I2548
I-10
tp495
a(I2756
I754
tp496
a(I1248
I754
tp497
a(I2531
I186
tp498
a(I1597
I189
tp499
a(I1872
I-10
tp500
a(I1040
I-8
tp501
a(I2340
I754
tp502
a(I676
I-8
tp503
a(I552
I67
tp504
a(I988
I754
tp505
a(I518
I67
tp506
a(I2769
I298
tp507
a(I2288
I754
tp508
a(I416
I-8
tp509
a(I2548
I755
tp510
a(I2166
I647
tp511
a(I232
I180
tp512
a(I2496
I-10
tp513
a(I364
I754
tp514
a(I1081
I646
tp515
a(I1508
I-10
tp516
a(I676
I754
tp517
a(I468
I754
tp518
a(I2288
I755
tp519
a(I468
I-10
tp520
a(I0
I-8
tp521
a(I988
I-8
tp522
a(I676
I-8
tp523
a(I1664
I754
tp524
a(I2187
I76
tp525
a(I2028
I754
tp526
a(I2794
I298
tp527
a(I2652
I754
tp528
a(I2064
I75
tp529
a(I520
I-8
tp530
a(I2496
I-8
tp531
a(I1760
I75
tp532
a(I2444
I-8
tp533
a(I2132
I-8
tp534
a(I321
I180
tp535
a(I1872
I755
tp536
a(I1820
I754
tp537
a(I2848
I73
tp538
a(I2652
I-8
tp539
a(I2756
I754
tp540
a(I1040
I754
tp541
a(I366
I296
tp542
a(I1925
I75
tp543
a(I884
I755
tp544
a(I2964
I754
tp545
a(I1300
I-8
tp546
a(I1741
I298
tp547
a(I130
I526
tp548
a(I858
I186
tp549
a(I1144
I754
tp550
a(I2236
I-10
tp551
a(I312
I754
tp552
a(I416
I-10
tp553
a(I676
I754
tp554
a(I2184
I754
tp555
a(I988
I755
tp556
a(I2912
I754
tp557
a(I2369
I524
tp558
a(I1040
I-10
tp559
a(I965
I646
tp560
a(I638
I410
tp561
a(I1257
I187
tp562
a(I260
I-8
tp563
a(I2548
I754
tp564
a(I2340
I-10
tp565
a(I2548
I-8
tp566
a(I520
I754
tp567
a(I2392
I-8
tp568
a(I2513
I647
tp569
a(I590
I67
tp570
a(I208
I754
tp571
a(I2132
I-10
tp572
a(I1129
I297
tp573
a(I2981
I413
tp574
a(I1763
I411
tp575
a(I0
I754
tp576
a(I1872
I-8
tp577
a(I1399
I187
tp578
a(I1967
I298
tp579
a(I1196
I-8
tp580
a(I1248
I755
tp581
a(I1976
I754
tp582
a(I2288
I755
tp583
a(I2808
I-8
tp584
a(I2860
I754
tp585
a(I1352
I-10
tp586
a(I572
I754
tp587
a(I2425
I72
tp588
a(I2652
I755
tp589
a(I2912
I755
tp590
a(I1248
I754
tp591
a(I676
I-10
tp592
a(I2548
I755
tp593
a(I312
I755
tp594
a(I2756
I-10
tp595
a(I2808
I-10
tp596
a(I1248
I-8
tp597
a(I1716
I-8
tp598
a(I988
I-10
tp599
a(I1896
I191
tp600
a(I1300
I-8
tp601
a(I2704
I755
tp602
a(I2236
I754
tp603
a(I1871
I298
tp604
a(I2796
I186
tp605
a(I416
I754
tp606
a(I1560
I755
tp607
a(I2756
I-8
tp608
a(I1843
I298
tp609
a(I2808
I755
tp610
a(I728
I-8
tp611
a(I1040
I754
tp612
a(I1820
I-8
tp613
a(I1924
I754
tp614
a(I2760
I647
tp615
a(I780
I754
tp616
a(I312
I755
tp617
a(I1164
I297
tp618
a(I1144
I-10
tp619
a(I1942
I411
tp620
a(I2184
I755
tp621
a(I364
I-8
tp622
a(I156
I-8
tp623
a(I1716
I754
tp624
a(I1404
I755
tp625
a(I1751
I646
tp626
a(I362
I180
tp627
a(I1872
I-8
tp628
a(I2184
I-8
tp629
a(I936
I-10
tp630
a(I1962
I524
tp631
a(I416
I754
tp632
a(I1976
I754
tp633
a(I2355
I413
tp634
a(I260
I754
tp635
a(I1352
I754
tp636
a(I1768
I-8
tp637
a(I1352
I-8
tp638
a(I2496
I755
tp639
a(I364
I-8
tp640
a(I52
I754
tp641
a(I2079
I524
tp642
a(I2392
I754
tp643
a(I2781
I413
tp644
a(I1233
I410
tp645
a(I1716
I-10
tp646
a(I2860
I755
tp647
a(I1456
I755
tp648
a(I2288
I-8
tp649
a(I416
I-8
tp650
a(I2383
I413
tp651
a(I728
I-10
tp652
a(I828
I297
tp653
a(I2305
I190
tp654
a(I2430
I524
tp655
a(I1456
I754
tp656
a(I2756
I755
tp657
a(I572
I754
tp658
a(I1092
I755
tp659
a(I780
I-8
tp660
a(I2080
I-8
tp661
a(I156
I754
tp662
a(I2036
I524
tp663
a(I624
I754
tp664
a(I1646
I189
tp665
a(I419
I296
tp666
a(I2600
I755
tp667
a(I1812
I411
tp668
a(I2704
I754
tp669
a(I1300
I755
tp670
a(I104
I-8
tp671
a(I2531
I72
tp672
a(I1456
I-8
tp673
a(I2406
I72
tp674
a(I156
I-8
tp675
a(I2080
I754
tp676
a(I2349
I190
tp677
a(I2184
I755
tp678
a(I104
I-8
tp679
a(I312
I-8
tp680
a(I908
I410
tp681
a(I1404
I754
tp682
a(I1739
I411
tp683
a(I2707
I186
tp684
a(I0
I-8
tp685
a(I208
I-8
tp686
a(I2496
I754
tp687
a(I1664
I-8
tp688
a(I1613
I410
tp689
a(I1352
I754
tp690
a(I2028
I754
tp691
a(I728
I754
tp692
a(I2923
I187
tp693
a(I468
I-10
tp694
a(I2132
I754
tp695
a(I1560
I-8
tp696
a(I1768
I754
tp697
a(I1716
I755
tp698
a(I2600
I-8
tp699
a(I1040
I-10
tp700
a(I1820
I754
tp701
a(I728
I-10
tp702
a(I2444
I754
tp703
a(I52
I754
tp704
a(I1643
I298
tp705
a(I2080
I754
tp706
a(I2595
I647
tp707
a(I2860
I-8
tp708
a(I1872
I-8
tp709
a(I1865
I411
tp710
a(I2288
I754
tp711
a(I1664
I-10
tp712
a(I312
I-10
tp713
a(I780
I-8
tp714
a(I1219
I187
tp715
a(I1743
I190
tp716
a(I2340
I-8
tp717
a(I2392
I-8
tp718
a(I624
I754
tp719
a(I1456
I-8
tp720
a(I572
I-8
tp721
a(I1820
I-10
tp722
a(I2912
I754
tp723
a(I2560
I647
tp724
a(I2674
I186
tp725
a(I572
I-8
tp726
a(I988
I754
tp727
a(I2184
I754
tp728
a(I624
I-8
tp729
a(I2496
I-8
tp730
a(I2893
I186
tp731
a(I520
I754
tp732
a(I208
I754
tp733
a(I1185
I524
tp734
a(I468
I-8
tp735
a(I416
I-10
tp736
a(I2638
I413
tp737
a(I2912
I755
tp738
a(I572
I755
tp739
a(I1612
I-8
tp740
a(I1040
I754
tp741
a(I312
I-8
tp742
a(I1456
I754
tp743
a(I1872
I754
tp744
a(I1612
I755
tp745
a(I156
I-8
tp746
a(I1976
I755
tp747
a(I728
I754
tp748
a(I1924
I755
tp749
a(I520
I754
tp750
a(I1508
I755
tp751
a(I2609
I186
tp752
a(I312
I754
tp753
a(I312
I-8
tp754
a(I2236
I755
tp755
a(I2652
I754
tp756
a(I1196
I754
tp757
a(I780
I-10
tp758
a(I260
I755
tp759
a(I2464
I298
tp760
a(I2858
I298
tp761
a(I1528
I297
tp762
a(I596
I410
tp763
a(I2028
I-8
tp764
a(I416
I-8
tp765
a(I104
I-10
tp766
a(I1768
I754
tp767
a(I1300
I-10
tp768
a(I1092
I-8
tp769
a(I520
I-10
tp770
a(I2808
I-8
tp771
a(I2743
I298
tp772
a(I1144
I755
tp773
a(I2548
I-10
tp774
a(I676
I-8
tp775
a(I936
I-8
tp776
a(I936
I755
tp777
a(I2814
I524
tp778
a(I1404
I-8
tp779
a(I2132
I755
tp780
a(I939
I410
tp781
a(I1820
I-10
tp782
a(I2808
I-8
tp783
a(I1662
I75
tp784
a(I1508
I755
tp785
a(I1560
I754
tp786
a(I130
I639
tp787
a(I1158
I410
tp788
a(I156
I-8
tp789
a(I1948
I75
tp790
a(I2711
I298
tp791
a(I1976
I-10
tp792
a(I2503
I72
tp793
a(I73
I67
tp794
a(I1768
I-8
tp795
a(I52
I755
tp796
a(I2731
I524
tp797
a(I1092
I-8
tp798
a(I1872
I754
tp799
a(I104
I-8
tp800
a(I2592
I524
tp801
a(I1092
I754
tp802
a(I2236
I754
tp803
a(I1820
I755
tp804
a(I2914
I298
tp805
a(I2496
I754
tp806
a(I2860
I-10
tp807
a(I1352
I-8
tp808
a(I1458
I187
tp809
a(I2340
I-10
tp810
a(I1928
I191
tp811
a(I326
I410
tp812
a(I2010
I524
tp813
a(I1560
I755
tp814
a(I1120
I186
tp815
a(I780
I-8
tp816
a(I1456
I754
tp817
a(I1040
I-8
tp818
a(I1196
I-10
tp819
a(I0
I755
tp820
a(I936
I754
tp821
a(I2080
I754
tp822
a(I1040
I-8
tp823
a(I1144
I754
tp824
a(I1248
I754
tp825
a(I1300
I755
tp826
a(I2440
I298
tp827
a(I832
I754
tp828
a(I780
I754
tp829
a(I156
I-8
tp830
a(I1439
I646
tp831
a(I711
I67
tp832
a(I2184
I754
tp833
a(I1248
I-10
tp834
a(I2132
I754
tp835
a(I832
I754
tp836
a(I355
I410
tp837
a(I416
I755
tp838
a(I624
I-8
tp839
a(I1612
I754
tp840
a(I2756
I-8
tp841
a(I2600
I755
tp842
a(I791
I185
tp843
a(I1473
I297
tp844
a(I780
I-8
tp845
a(I2698
I413
tp846
a(I2340
I-8
tp847
a(I364
I-10
tp848
a(I1470
I646
tp849
a(I2392
I-8
tp850
a(I312
I-10
tp851
a(I1564
I646
tp852
a(I2167
I413
tp853
a(I832
I755
tp854
a(I364
I-8
tp855
a(I1352
I-8
tp856
a(I1716
I-8
tp857
a(I0
I-8
tp858
a(I1767
I298
tp859
a(I1352
I-10
tp860
a(I1092
I-8
tp861
a(I2247
I76
tp862
a(I1248
I646
tp863
a(I364
I754
tp864
a(I2340
I754
tp865
a(I998
I297
tp866
a(I2184
I755
tp867
a(I2964
I755
tp868
a(I2901
I413
tp869
a(I2288
I754
tp870
a(I2017
I411
tp871
a(I2184
I-10
tp872
a(I1092
I-10
tp873
a(I364
I754
tp874
a(I1814
I646
tp875
a(I2132
I754
tp876
a(I1924
I755
tp877
a(I1040
I-8
tp878
a(I2652
I755
tp879
a(I104
I-8
tp880
a(I936
I754
tp881
a(I1144
I-8
tp882
a(I1211
I524
tp883
a(I987
I410
tp884
a(I2288
I-8
tp885
a(I2704
I-8
tp886
a(I1040
I754
tp887
a(I2643
I298
tp888
a(I2444
I755
tp889
a(I1172
I524
tp890
a(I417
I67
tp891
a(I832
I754
tp892
a(I2562
I524
tp893
a(I1092
I-10
tp894
a(I2008
I411
tp895
a(I1560
I-10
tp896
a(I1664
I-8
tp897
a(I2808
I754
tp898
a(I2600
I-8
tp899
a(I2704
I-10
tp900
a(I1664
I754
tp901
a(I109
I67
tp902
a(I676
I754
tp903
a(I156
I754
tp904
a(I884
I-8
tp905
a(I1513
I410
tp906
a(I1040
I755
tp907
a(I2080
I-8
tp908
a(I1778
I190
tp909
a(I1040
I754
tp910
a(I1046
I186
tp911
a(I2206
I647
tp912
a(I52
I-8
tp913
a(I104
I-10
tp914
a(I1872
I-10
tp915
a(I1845
I524
tp916
a(I2975
I524
tp917
a(I2912
I754
tp918
a(I506
I410
tp919
a(I2965
I73
tp920
a(I1782
I646
tp921
a(I2392
I754
tp922
a(I1768
I-8
tp923
a(I2912
I-8
tp924
a(I364
I755
tp925
a(I1664
I-8
tp926
a(I2340
I-8
tp927
a(I1672
I524
tp928
a(I2431
I413
tp929
a(I1144
I755
tp930
a(I113
I180
tp931
a(I1664
I-8
tp932
a(I2860
I-8
tp933
a(I2600
I-10
tp934
a(I520
I754
tp935
a(I2912
I754
tp936
a(I1352
I-10
tp937
a(I1560
I-8
tp938
a(I0
I754
tp939
a(I1705
I298
tp940
a(I2704
I754
tp941
a(I2444
I-10
tp942
a(I2184
I-8
tp943
a(I1286
I297
tp944
a(I1924
I-8
tp945
a(I0
I754
tp946
a(I832
I-8
tp947
a(I1248
I-8
tp948
a(I2964
I-8
tp949
a(I1872
I755
tp950
a(I1924
I-8
tp951
a(I2406
I298
tp952
a(I364
I755
tp953
a(I2349
I298
tp954
a(I936
I-8
tp955
a(I48
I296
tp956
a(I1490
I524
tp957
a(I936
I754
tp958
a(I2444
I-8
tp959
a(I1404
I754
tp960
a(I2236
I-8
tp961
a(I1352
I-8
tp962
a(I1924
I-8
tp963
a(I2206
I524
tp964
a(I1144
I-8
tp965
a(I1596
I410
tp966
a(I2028
I-10
tp967
a(I1768
I754
tp968
a(I1820
I-8
tp969
a(I676
I-8
tp970
a(I208
I-10
tp971
a(I676
I754
tp972
a(I2768
I186
tp973
a(I794
I297
tp974
a(I618
I67
tp975
a(I2341
I524
tp976
a(I468
I-8
tp977
a(I1248
I754
tp978
a(I676
I-8
tp979
a(I1318
I297
tp980
a(I364
I-10
tp981
a(I487
I67
tp982
a(I984
I186
tp983
a(I1602
I524
tp984
a(I1214
I297
tp985
a(I2041
I75
tp986
a(I296
I410
tp987
a(I624
I755
tp988
a(I2860
I-8
tp989
a(I2132
I-8
tp990
a(I1248
I755
tp991
a(I2704
I754
tp992
a(I2860
I755
tp993
a(I2392
I754
tp994
a(I156
I755
tp995
a(I1820
I755
tp996
a(I2236
I754
tp997
a(I2757
I524
tp998
a(I208
I-8
tp999
a(I728
I-8
tp1000
a(I1048
I297
tp1001
a(I260
I-8
tp1002
a(I624
I-8
tp1003
a(I1788
I411
tp1004
a(I884
I754
tp1005
a(I2081
I190
tp1006
a(I21
I639
tp1007
a(I208
I754
tp1008
a(I2697
I524
tp1009
a(I1716
I-8
tp1010
a(I1716
I755
tp1011
a(I208
I-10
tp1012
a(I1456
I754
tp1013
a(I128
I410
tp1014
a(I728
I755
tp1015
a(I1456
I754
tp1016
a(I2340
I-8
tp1017
a(I2444
I754
tp1018
a(I1924
I754
tp1019
a(I1924
I-8
tp1020
a(I1872
I755
tp1021
a(I1144
I754
tp1022
a(I1456
I-8
tp1023
a(I2968
I647
tp1024
a(I520
I755
tp1025
a(I2138
I190
tp1026
a(I1352
I646
tp1027
a(I832
I754
tp1028
a(I884
I-8
tp1029
a(I780
I-10
tp1030
a(I2548
I-8
tp1031
a(I2844
I524
tp1032
a(I2704
I-8
tp1033
a(I422
I410
tp1034
a(I208
I754
tp1035
a(I2496
I-10
tp1036
a(I572
I755
tp1037
a(I2808
I-8
tp1038
a(I1404
I-8
tp1039
a(I52
I755
tp1040
a(I1664
I755
tp1041
a(I2886
I298
tp1042
a(I260
I754
tp1043
a(I1664
I755
tp1044
a(I2288
I-8
tp1045
a(I2392
I755
tp1046
a(I82
I296
tp1047
a(I1144
I-8
tp1048
a(I877
I297
tp1049
a(I1664
I-8
tp1050
a(I1958
I191
tp1051
a(I572
I-10
tp1052
a(I2340
I754
tp1053
a(I1352
I755
tp1054
a(I260
I-8
tp1055
a(I2392
I754
tp1056
a(I2862
I186
tp1057
a(I2756
I-10
tp1058
a(I2860
I755
tp1059
a(I2340
I755
tp1060
a(I367
I67
tp1061
a(I884
I754
tp1062
a(I2335
I647
tp1063
a(I2543
I298
tp1064
a(I104
I754
tp1065
a(I2132
I-10
tp1066
a(I1144
I755
tp1067
a(I2266
I190
tp1068
a(I1768
I-8
tp1069
a(I572
I754
tp1070
a(I988
I-8
tp1071
a(I2288
I-10
tp1072
a(I1506
I297
tp1073
a(I2496
I-8
tp1074
a(I1820
I754
tp1075
a(I2288
I754
tp1076
a(I1889
I524
tp1077
a(I260
I755
tp1078
a(I2168
I298
tp1079
a(I1456
I755
tp1080
a(I312
I754
tp1081
a(I104
I755
tp1082
a(I884
I-8
tp1083
a(I364
I-10
tp1084
a(I936
I754
tp1085
a(I1508
I754
tp1086
a(I1439
I410
tp1087
a(I1612
I754
tp1088
a(I2132
I-8
tp1089
a(I676
I67
tp1090
a(I2808
I-10
tp1091
a(I2651
I647
tp1092
a(I728
I754
tp1093
a(I1189
I410
tp1094
a(I1196
I755
tp1095
a(I260
I754
tp1096
a(I1560
I754
tp1097
a(I2625
I72
tp1098
a(I2028
I-10
tp1099
a(I1092
I754
tp1100
a(I0
I-10
tp1101
a(I780
I-10
tp1102
a(I2444
I755
tp1103
a(I2340
I754
tp1104
a(I1612
I-8
tp1105
a(I2926
I413
tp1106
a(I815
I410
tp1107
a(I1352
I754
tp1108
a(I2340
I-8
tp1109
a(I832
I754
tp1110
a(I2548
I754
tp1111
a(I1508
I-10
tp1112
a(I2860
I-10
tp1113
a(I624
I-10
tp1114
a(I2075
I298
tp1115
a(I468
I755
tp1116
a(I104
I754
tp1117
a(I22
I526
tp1118
a(I1924
I755
tp1119
a(I1508
I-8
tp1120
a(I2704
I-8
tp1121
a(I2087
I647
tp1122
a(I572
I754
tp1123
a(I2964
I754
tp1124
a(I52
I-8
tp1125
a(I2975
I187
tp1126
a(I1196
I755
tp1127
a(I73
I180
tp1128
a(I2600
I754
tp1129
a(I2549
I413
tp1130
a(I645
I67
tp1131
a(I1456
I755
tp1132
a(I1248
I-10
tp1133
a(I2600
I754
tp1134
a(I832
I-8
tp1135
a(I118
I296
tp1136
a(I1664
I754
tp1137
a(I2704
I-8
tp1138
a(I1144
I-8
tp1139
a(I2704
I-8
tp1140
a(I2251
I298
tp1141
a(I2256
I647
tp1142
a(I1009
I646
tp1143
a(I2652
I754
tp1144
a(I468
I296
tp1145
a(I2664
I524
tp1146
a(I1508
I-10
tp1147
a(I1768
I755
tp1148
a(I2756
I755
tp1149
a(I884
I755
tp1150
a(I1352
I754
tp1151
a(I312
I754
tp1152
a(I2787
I524
tp1153
a(I2808
I754
tp1154
a(I1924
I754
tp1155
a(I175
I67
tp1156
a(I1508
I754
tp1157
a(I2340
I-10
tp1158
a(I104
I754
tp1159
a(I2184
I-8
tp1160
a(I2240
I524
tp1161
a(I2548
I-8
tp1162
a(I1196
I754
tp1163
a(I1144
I-8
tp1164
a(I2121
I413
tp1165
a(I2080
I-8
tp1166
a(I624
I754
tp1167
a(I624
I-10
tp1168
a(I156
I754
tp1169
a(I1456
I-8
tp1170
a(I2652
I754
tp1171
a(I1300
I754
tp1172
a(I2912
I-8
tp1173
a(I2480
I524
tp1174
a(I236
I296
tp1175
a(I2109
I190
tp1176
a(I208
I-8
tp1177
a(I2912
I-10
tp1178
a(I1716
I754
tp1179
a(I364
I-8
tp1180
a(I1840
I75
tp1181
a(I1456
I-10
tp1182
a(I2080
I-10
tp1183
a(I312
I754
tp1184
a(I1092
I-10
tp1185
a(I468
I754
tp1186
a(I2985
I647
tp1187
a(I2091
I75
tp1188
a(I1768
I-8
tp1189
a(I2184
I-10
tp1190
a(I260
I754
tp1191
a(I1644
I410
tp1192
a(I2912
I754
tp1193
a(I2496
I-8
tp1194
a(I2236
I755
tp1195
a(I364
I-8
tp1196
a(I2444
I-8
tp1197
a(I2199
I190
tp1198
a(I988
I-8
tp1199
a(I1456
I-8
tp1200
a(I2964
I-10
tp1201
a(I197
I296
tp1202
a(I1916
I411
tp1203
a(I2392
I754
tp1204
a(I2444
I-10
tp1205
a(I2756
I-10
tp1206
a(I2340
I755
tp1207
a(I2230
I190
tp1208
a(I2028
I-10
tp1209
a(I52
I754
tp1210
a(I1300
I754
tp1211
a(I0
I-10
tp1212
a(I572
I-10
tp1213
a(I1686
I646
tp1214
a(I208
I-8
tp1215
a(I2652
I-10
tp1216
a(I2236
I-10
tp1217
a(I2132
I755
tp1218
a(I1664
I754
tp1219
a(I2132
I754
tp1220
a(I988
I-10
tp1221
a(I1816
I190
tp1222
a(I319
I296
tp1223
a(I2825
I298
tp1224
a(I2955
I298
tp1225
a(I520
I754
tp1226
a(I1716
I754
tp1227
a(I1404
I754
tp1228
a(I2288
I-10
tp1229
a(I266
I67
tp1230
a(I28
I526
tp1231
a(I2080
I-8
tp1232
a(I1248
I754
tp1233
a(I2860
I754
tp1234
a(I2503
I298
tp1235
a(I2265
I524
tp1236
a(I1976
I-10
tp1237
a(I2756
I755
tp1238
a(I988
I-10
tp1239
a(I1924
I754
tp1240
a(I1820
I754
tp1241
a(I2964
I-8
tp1242
a(I2600
I-8
tp1243
a(I2457
I72
tp1244
a(I1976
I190
tp1245
a(I1411
I646
tp1246
a(I2699
I72
tp1247
a(I728
I-8
tp1248
a(I2501
I524
tp1249
a(I1885
I646
tp1250
a(I1358
I297
tp1251
a(I2725
I413
tp1252
a(I832
I-8
tp1253
a(I2666
I72
tp1254
a(I624
I-8
tp1255
a(I156
I754
tp1256
a(I0
I755
tp1257
a(I1976
I754
tp1258
a(I1612
I754
tp1259
a(I52
I754
tp1260
a(I2677
I298
tp1261
a(I1404
I755
tp1262
a(I2444
I-8
tp1263
a(I2548
I754
tp1264
a(I2340
I754
tp1265
a(I1818
I298
tp1266
a(I468
I754
tp1267
a(I624
I-8
tp1268
a(I52
I754
tp1269
a(I2577
I413
tp1270
a(I1456
I-10
tp1271
a(I2496
I754
tp1272
a(I1404
I754
tp1273
a(I2874
I413
tp1274
a(I2288
I754
tp1275
a(I312
I-8
tp1276
a(I156
I755
tp1277
a(I2704
I754
tp1278
a(I1924
I-8
tp1279
a(I1196
I754
tp1280
a(I2808
I-8
tp1281
a(I2392
I-8
tp1282
a(I2600
I755
tp1283
a(I2600
I-8
tp1284
a(I0
I-8
tp1285
a(I1872
I-8
tp1286
a(I1092
I754
tp1287
a(I52
I-10
tp1288
a(I2080
I-8
tp1289
a(I2548
I755
tp1290
a(I624
I755
tp1291
a(I104
I-10
tp1292
a(I1872
I-8
tp1293
a(I1352
I754
tp1294
a(I884
I-10
tp1295
a(I2756
I754
tp1296
a(I1664
I-10
tp1297
a(I2288
I-10
tp1298
a(I468
I-8
tp1299
a(I2624
I647
tp1300
a(I728
I-10
tp1301
a(I780
I754
tp1302
a(I1820
I754
tp1303
a(I1902
I75
tp1304
a(I676
I754
tp1305
a(I2912
I-8
tp1306
a(I2964
I-10
tp1307
a(I468
I754
tp1308
a(I988
I755
tp1309
a(I2132
I755
tp1310
a(I2444
I-10
tp1311
a(I672
I410
tp1312
a(I676
I-8
tp1313
a(I1612
I-10
tp1314
a(I2294
I524
tp1315
a(I14
I67
tp1316
a(I624
I-10
tp1317
a(I695
I296
tp1318
a(I312
I-8
tp1319
a(I1768
I755
tp1320
a(I1144
I754
tp1321
a(I2036
I298
tp1322
a(I2288
I754
tp1323
a(I1716
I-8
tp1324
a(I1380
I646
tp1325
a(I2132
I-8
tp1326
a(I1768
I-8
tp1327
a(I2790
I647
tp1328
a(I-170
I201
tp1329
a(I936
I-10
tp1330
a(I2366
I298
tp1331
a(I416
I754
tp1332
a(I572
I-8
tp1333
a(I1926
I298
tp1334
a(I1872
I754
tp1335
a(I2163
I524
tp1336
a(I676
I754
tp1337
a(I1664
I754
tp1338
a(I2985
I73
tp1339
a(I2392
I755
tp1340
a(I1096
I297
tp1341
a(I1300
I754
tp1342
a(I2912
I754
tp1343
a(I1654
I646
tp1344
a(I884
I755
tp1345
a(I341
I67
tp1346
a(I2513
I413
tp1347
a(I2132
I754
tp1348
a(I312
I-10
tp1349
a(I83
I410
tp1350
a(I2964
I755
tp1351
a(I728
I-8
tp1352
a(I416
I755
tp1353
a(I2756
I-8
tp1354
a(I2611
I298
tp1355
a(I2288
I-8
tp1356
a(I1924
I754
tp1357
a(I2104
I412
tp1358
a(I2481
I413
tp1359
a(I416
I-10
tp1360
a(I468
I-8
tp1361
a(I780
I755
tp1362
a(I988
I-8
tp1363
a(I2578
I72
tp1364
a(I260
I754
tp1365
a(I1183
I187
tp1366
a(I770
I410
tp1367
a(I1396
I410
tp1368
a(I1040
I755
tp1369
a(I156
I-10
tp1370
a(I1404
I-10
tp1371
a(I520
I755
tp1372
a(I111
I410
tp1373
a(I2837
I647
tp1374
a(I572
I-8
tp1375
a(I2964
I754
tp1376
a(I1340
I187
tp1377
a(I1300
I-8
tp1378
a(I1167
I646
tp1379
a(I2928
I647
tp1380
a(I1872
I-8
tp1381
a(I1836
I411
tp1382
a(I2808
I754
tp1383
a(I2290
I413
tp1384
a(I459
I67
tp1385
a(I676
I755
tp1386
a(I2808
I754
tp1387
a(I1872
I754
tp1388
a(I1200
I646
tp1389
a(I416
I754
tp1390
a(I364
I754
tp1391
a(I1352
I-8
tp1392
a(I1073
I410
tp1393
a(I832
I-10
tp1394
a(I790
I69
tp1395
a(I1560
I755
tp1396
a(I2600
I754
tp1397
a(I2236
I754
tp1398
a(I728
I-8
tp1399
a(I1976
I-8
tp1400
a(I2444
I754
tp1401
a(I2912
I-8
tp1402
a(I2028
I755
tp1403
a(I728
I754
tp1404
a(I2940
I73
tp1405
a(I2126
I647
tp1406
a(I1560
I-10
tp1407
a(I2323
I413
tp1408
a(I1196
I-10
tp1409
a(I624
I754
tp1410
a(I1508
I754
tp1411
a(I2048
I647
tp1412
a(I1248
I-8
tp1413
a(I208
I754
tp1414
a(I1144
I-10
tp1415
a(I520
I-8
tp1416
a(I1664
I755
tp1417
a(I1040
I755
tp1418
a(I1820
I-8
tp1419
a(I884
I754
tp1420
a(I2132
I-8
tp1421
a(I520
I-10
tp1422
a(I832
I-8
tp1423
a(I1196
I-10
tp1424
a(I2268
I76
tp1425
a(I936
I755
tp1426
a(I1820
I-8
tp1427
a(I104
I755
tp1428
a(I364
I754
tp1429
a(I884
I754
tp1430
a(I832
I186
tp1431
a(I1664
I754
tp1432
a(I2496
I-8
tp1433
a(I2236
I754
tp1434
a(I520
I-8
tp1435
a(I1716
I-8
tp1436
a(I156
I-8
tp1437
a(I213
I67
tp1438
a(I468
I-8
tp1439
a(I1704
I190
tp1440
a(I1612
I754
tp1441
a(I1352
I755
tp1442
a(I1367
I187
tp1443
a(I2028
I754
tp1444
a(I416
I-8
tp1445
a(I2808
I755
tp1446
a(I2912
I-10
tp1447
a(I156
I-10
tp1448
a(I2548
I-8
tp1449
a(I2236
I-8
tp1450
a(I58
I410
tp1451
a(I893
I186
tp1452
a(I1300
I755
tp1453
a(I1196
I755
tp1454
a(I260
I-8
tp1455
a(I2139
I76
tp1456
a(I728
I755
tp1457
a(I624
I755
tp1458
a(I520
I754
tp1459
a(I2132
I-8
tp1460
a(I2673
I647
tp1461
a(I832
I-8
tp1462
a(I2756
I-8
tp1463
a(I728
I754
tp1464
a(I2600
I754
tp1465
a(I624
I754
tp1466
a(I1560
I-8
tp1467
a(I1716
I754
tp1468
a(I1560
I754
tp1469
a(I2756
I754
tp1470
a(I2219
I76
tp1471
a(I2080
I-10
tp1472
a(I988
I-8
tp1473
a(I1248
I754
tp1474
a(I1103
I646
tp1475
a(I1933
I524
tp1476
a(I2080
I755
tp1477
a(I2756
I754
tp1478
a(I2964
I754
tp1479
a(I1716
I-8
tp1480
a(I1367
I71
tp1481
a(I2184
I-8
tp1482
a(I2496
I-8
tp1483
a(I1296
I187
tp1484
a(I1300
I754
tp1485
a(I391
I67
tp1486
a(I2471
I647
tp1487
a(I2752
I413
tp1488
a(I1150
I186
tp1489
a(I1560
I-8
tp1490
a(I1508
I754
tp1491
a.(lp1
.(lp1
(I2612
I258
tp2
a(I732
I709
tp3
a(I2868
I714
tp4
a(I2896
I34
tp5
a(I1028
I146
tp6
a(I1609
I472
tp7
a(I2720
I143
tp8
a(I1623
I354
tp9
a(I1972
I705
tp10
a(I2640
I33
tp11
a(I2039
I145
tp12
a(I1613
I241
tp13
a(I2133
I603
tp14
a(I2255
I704
tp15
a(I2725
I713
tp16
a(I1956
I368
tp17
a(I2745
I605
tp18
a(I2746
I257
tp19
a(I1899
I260
tp20
a(I2622
I480
tp21
a(I2217
I149
tp22
a(I2962
I485
tp23
a(I2430
I254
tp24
a(I2815
I141
tp25
a(I116
I709
tp26
a(I515
I360
tp27
a(I1624
I144
tp28
a(I1544
I707
tp29
a(I1501
I604
tp30
a(I2526
I366
tp31
a(I1141
I139
tp32
a(I113
I367
tp33
a(I2498
I607
tp34
a(I1403
I706
tp35
a(I1970
I36
tp36
a(I312
I368
tp37
a(I2336
I363
tp38
a(I2219
I254
tp39
a(I2900
I144
tp40
a(I1128
I257
tp41
a(I113
I141
tp42
a(I1248
I371
tp43
a(I251
I257
tp44
a(I2724
I34
tp45
a(I1227
I482
tp46
a(I1121
I372
tp47
a(I2585
I713
tp48
a(I1712
I705
tp49
a(I2758
I368
tp50
a(I1744
I481
tp51
a(I1801
I142
tp52
a(I1260
I709
tp53
a(I1859
I480
tp54
a(I2851
I485
tp55
a(I2518
I480
tp56
a(I2805
I34
tp57
a(I2553
I141
tp58
a(I2462
I35
tp59
a(I2218
I484
tp60
a(I2005
I482
tp61
a(I2616
I366
tp62
a(I535
I259
tp63
a(I1376
I477
tp64
a(I823
I263
tp65
a(I2888
I364
tp66
a(I255
I712
tp67
a(I2104
I254
tp68
a(I495
I713
tp69
a(I2457
I712
tp70
a(I1259
I141
tp71
a(I1775
I262
tp72
a(I2727
I486
tp73
a(I2915
I609
tp74
a(I2002
I597
tp75
a(I2625
I606
tp76
a(I910
I149
tp77
a(I900
I357
tp78
a(I1372
I593
tp79
a(I1714
I595
tp80
a(I1765
I367
tp81
a(I1842
I705
tp82
a(I1842
I595
tp83
a(I1678
I37
tp84
a(I64
I257
tp85
a(I1364
I375
tp86
a(I1609
I141
tp87
a(I706
I356
tp88
a(I2553
I37
tp89
a(I2340
I484
tp90
a(I1303
I260
tp91
a(I2102
I705
tp92
a(I2374
I605
tp93
a(I2870
I250
tp94
a(I1435
I253
tp95
a(I52
I598
tp96
a(I2221
I372
tp97
a.(lp1
(I331
I229
tp2
a(I1312
I686
tp3
a(I2266
I231
tp4
a(I1974
I230
tp5
a(I-111
I-44
tp6
a(I1646
I229
tp7
a(I-137
I178
tp8
a(I80
I684
tp9
a(I1388
I120
tp10
a(I1006
I688
tp11
a(I749
I232
tp12
a(I416
I230
tp13
a(I2117
I123
tp14
a(I1713
I341
tp15
a(I254
I115
tp16
a(I2962
I346
tp17
a(I24
I457
tp18
a(I996
I345
tp19
a(I23
I229
tp20
a(I2807
I686
tp21
a(I2479
I456
tp22
a(I1235
I570
tp23
a(I1646
I454
tp24
a(I2169
I456
tp25
a(I1889
I453
tp26
a(I2537
I232
tp27
a(I124
I572
tp28
a(I1718
I119
tp29
a(I2313
I684
tp30
a(I1318
I117
tp31
a(I1594
I122
tp32
a(I1699
I686
tp33
a(I2232
I573
tp34
a(I2031
I340
tp35
a(I1190
I-54
tp36
a(I2973
I683
tp37
a(I2867
I577
tp38
a(I1610
I574
tp39
a(I2171
I122
tp40
a(I1490
I453
tp41
a(I1871
I124
tp42
a(I1173
I686
tp43
a(I2948
I112
tp44
a(I2400
I347
tp45
a(I1590
I341
tp46
a(I1059
I342
tp47
a(I1811
I455
tp48
a(I2578
I118
tp49
a.(I2651
I144
t.