S'BossFight'
p1
.(I640
I480
tp1
.(I79
I452
tp1
.(lp1
(I650
I230
tp2
a(I-10
I0
tp3
a(I-51
I26
tp4
a(I650
I414
tp5
a(I-10
I0
tp6
a(I234
I163
tp7
a(I650
I92
tp8
a(I650
I46
tp9
a(I393
I164
tp10
a(I-10
I46
tp11
a(I-10
I414
tp12
a(I-10
I230
tp13
a(I234
I185
tp14
a(I-10
I46
tp15
a(I650
I138
tp16
a(I-10
I368
tp17
a(I-10
I230
tp18
a(I650
I138
tp19
a(I-10
I276
tp20
a(I650
I46
tp21
a(I-10
I368
tp22
a(I532
I281
tp23
a(I650
I0
tp24
a(I-10
I138
tp25
a(I-10
I414
tp26
a(I650
I460
tp27
a(I-10
I46
tp28
a(I650
I184
tp29
a(I-10
I276
tp30
a(I-10
I230
tp31
a(I104
I282
tp32
a(I-10
I322
tp33
a(I650
I46
tp34
a(I-10
I0
tp35
a(I650
I138
tp36
a(I-10
I460
tp37
a(I650
I230
tp38
a(I650
I92
tp39
a(I650
I322
tp40
a(I650
I414
tp41
a(I-10
I46
tp42
a(I-10
I322
tp43
a(I532
I299
tp44
a(I-10
I322
tp45
a(I650
I322
tp46
a(I650
I230
tp47
a(I650
I368
tp48
a(I650
I460
tp49
a(I650
I414
tp50
a(I650
I46
tp51
a(I393
I230
tp52
a(I650
I0
tp53
a(I-10
I184
tp54
a(I-10
I92
tp55
a(I-10
I138
tp56
a(I650
I138
tp57
a(I650
I460
tp58
a(I-10
I276
tp59
a(I650
I0
tp60
a(I-10
I92
tp61
a(I104
I343
tp62
a(I650
I414
tp63
a(I650
I368
tp64
a(I-10
I92
tp65
a(I-10
I46
tp66
a(I-10
I138
tp67
a(I-10
I0
tp68
a(I650
I368
tp69
a(I-10
I230
tp70
a(I-10
I0
tp71
a(I-10
I322
tp72
a(I650
I92
tp73
a(I-10
I46
tp74
a(I-10
I414
tp75
a(I650
I138
tp76
a(I650
I46
tp77
a(I650
I0
tp78
a(I-10
I138
tp79
a(I650
I276
tp80
a(I650
I184
tp81
a(I650
I92
tp82
a(I-10
I276
tp83
a(I393
I190
tp84
a(I-10
I92
tp85
a(I104
I298
tp86
a(I650
I276
tp87
a(I-10
I368
tp88
a(I-10
I0
tp89
a(I-10
I368
tp90
a(I-10
I460
tp91
a(I650
I414
tp92
a(I650
I322
tp93
a(I-10
I460
tp94
a(I650
I0
tp95
a(I650
I460
tp96
a(I532
I343
tp97
a(I-10
I276
tp98
a(I-10
I184
tp99
a(I650
I184
tp100
a(I650
I230
tp101
a(I650
I0
tp102
a(I650
I92
tp103
a(I-10
I460
tp104
a(I-10
I368
tp105
a(I650
I184
tp106
a(I-10
I414
tp107
a(I-10
I230
tp108
a(I650
I276
tp109
a(I650
I138
tp110
a(I650
I184
tp111
a(I650
I92
tp112
a(I650
I368
tp113
a(I-10
I184
tp114
a(I-10
I414
tp115
a(I-10
I322
tp116
a(I650
I322
tp117
a(I650
I230
tp118
a(I-10
I414
tp119
a(I650
I276
tp120
a(I-10
I138
tp121
a(I650
I368
tp122
a(I-10
I368
tp123
a(I650
I184
tp124
a(I-10
I184
tp125
a(I-10
I230
tp126
a(I-10
I184
tp127
a(I650
I322
tp128
a(I650
I368
tp129
a(I-10
I460
tp130
a(I650
I322
tp131
a(I234
I229
tp132
a(I650
I276
tp133
a(I650
I46
tp134
a(I-10
I138
tp135
a(I650
I460
tp136
a(I-10
I460
tp137
a(I-10
I92
tp138
a(I650
I460
tp139
a(I-10
I92
tp140
a(I650
I276
tp141
a(I650
I414
tp142
a(I-10
I184
tp143
a(I-10
I322
tp144
a(I-10
I276
tp145
a(I650
I230
tp146
a.(lp1
(I156
I-8
tp2
a(I520
I-8
tp3
a(I208
I484
tp4
a(I176
I255
tp5
a(I562
I369
tp6
a(I126
I369
tp7
a(I156
I484
tp8
a(I156
I484
tp9
a(I104
I-8
tp10
a(I558
I255
tp11
a(I468
I484
tp12
a(I416
I-8
tp13
a(I597
I369
tp14
a(I520
I484
tp15
a(I364
I484
tp16
a(I572
I484
tp17
a(I156
I-8
tp18
a(I585
I255
tp19
a(I104
I484
tp20
a(I520
I484
tp21
a(I617
I255
tp22
a(I156
I484
tp23
a(I116
I138
tp24
a(I208
I-8
tp25
a(I208
I484
tp26
a(I312
I484
tp27
a(I237
I369
tp28
a(I0
I-8
tp29
a(I312
I484
tp30
a(I260
I484
tp31
a(I416
I484
tp32
a(I104
I484
tp33
a(I247
I138
tp34
a(I260
I484
tp35
a(I52
I-8
tp36
a(I520
I484
tp37
a(I0
I-8
tp38
a(I624
I-8
tp39
a(I624
I484
tp40
a(I0
I484
tp41
a(I78
I255
tp42
a(I520
I-8
tp43
a(I350
I255
tp44
a(I572
I484
tp45
a(I0
I-8
tp46
a(I624
I-8
tp47
a(I512
I369
tp48
a(I0
I484
tp49
a(I572
I-8
tp50
a(I19
I138
tp51
a(I513
I255
tp52
a(I619
I369
tp53
a(I124
I255
tp54
a(I104
I484
tp55
a(I139
I369
tp56
a(I416
I484
tp57
a(I260
I-8
tp58
a(I364
I-8
tp59
a(I200
I138
tp60
a(I319
I369
tp61
a(I312
I484
tp62
a(I624
I484
tp63
a(I468
I484
tp64
a(I313
I255
tp65
a(I572
I484
tp66
a(I52
I-8
tp67
a(I156
I484
tp68
a(I260
I484
tp69
a(I505
I369
tp70
a(I104
I484
tp71
a(I395
I369
tp72
a(I189
I369
tp73
a(I60
I138
tp74
a(I365
I138
tp75
a(I520
I-8
tp76
a(I156
I-8
tp77
a(I572
I484
tp78
a(I52
I-8
tp79
a(I208
I-8
tp80
a(I52
I-8
tp81
a(I567
I138
tp82
a(I312
I-8
tp83
a(I52
I-8
tp84
a(I260
I-8
tp85
a(I416
I-8
tp86
a(I412
I255
tp87
a(I325
I138
tp88
a(I468
I484
tp89
a(I23
I369
tp90
a(I468
I-8
tp91
a(I624
I-8
tp92
a(I0
I-8
tp93
a(I260
I484
tp94
a(I364
I-8
tp95
a(I312
I-8
tp96
a(I132
I255
tp97
a(I468
I-8
tp98
a(I52
I-8
tp99
a(I0
I-8
tp100
a(I468
I-8
tp101
a(I104
I-8
tp102
a(I416
I-8
tp103
a(I104
I-8
tp104
a(I416
I484
tp105
a(I416
I484
tp106
a(I572
I-8
tp107
a(I260
I-8
tp108
a(I74
I369
tp109
a(I208
I484
tp110
a(I572
I484
tp111
a(I104
I-8
tp112
a(I520
I484
tp113
a(I364
I484
tp114
a(I104
I-8
tp115
a(I52
I484
tp116
a(I281
I138
tp117
a(I617
I138
tp118
a(I91
I138
tp119
a(I0
I-8
tp120
a(I468
I-8
tp121
a(I52
I484
tp122
a(I212
I255
tp123
a(I0
I484
tp124
a(I208
I-8
tp125
a(I0
I484
tp126
a(I208
I-8
tp127
a(I520
I484
tp128
a(I437
I369
tp129
a(I208
I484
tp130
a(I364
I-8
tp131
a(I156
I484
tp132
a(I479
I138
tp133
a(I16
I255
tp134
a(I260
I484
tp135
a(I624
I-8
tp136
a(I156
I484
tp137
a(I364
I484
tp138
a(I624
I-8
tp139
a(I468
I484
tp140
a(I468
I-8
tp141
a(I468
I484
tp142
a(I312
I484
tp143
a(I572
I484
tp144
a(I483
I369
tp145
a(I416
I-8
tp146
a(I416
I-8
tp147
a(I0
I484
tp148
a(I364
I-8
tp149
a(I520
I-8
tp150
a(I312
I484
tp151
a(I208
I-8
tp152
a(I52
I484
tp153
a(I52
I484
tp154
a(I156
I-8
tp155
a(I104
I484
tp156
a(I383
I138
tp157
a(I280
I369
tp158
a(I263
I255
tp159
a(I446
I255
tp160
a(I430
I138
tp161
a(I312
I-8
tp162
a(I416
I-8
tp163
a(I364
I484
tp164
a(I572
I-8
tp165
a(I528
I138
tp166
a(I156
I-8
tp167
a(I260
I-8
tp168
a(I208
I484
tp169
a(I624
I-8
tp170
a(I312
I-8
tp171
a(I572
I-8
tp172
a(I364
I484
tp173
a(I387
I255
tp174
a(I104
I-8
tp175
a(I104
I484
tp176
a(I416
I484
tp177
a(I476
I255
tp178
a(I34
I255
tp179
a(I364
I484
tp180
a(I312
I-8
tp181
a(I520
I-8
tp182
a(I0
I484
tp183
a(I416
I484
tp184
a(I260
I484
tp185
a(I260
I-8
tp186
a(I572
I-8
tp187
a(I156
I-8
tp188
a(I364
I-8
tp189
a(I52
I484
tp190
a(I624
I484
tp191
a(I624
I484
tp192
a(I624
I484
tp193
a(I468
I-8
tp194
a(I151
I138
tp195
a(I572
I-8
tp196
a(I260
I-8
tp197
a(I52
I484
tp198
a(I312
I-8
tp199
a(I520
I484
tp200
a(I468
I484
tp201
a(I357
I369
tp202
a(I520
I-8
tp203
a(I312
I484
tp204
a(I624
I484
tp205
a(I364
I-8
tp206
a(I208
I-8
tp207
a(I208
I484
tp208
a.(lp1
.(lp1
.(lp1
(I427
I189
tp2
a(I80
I302
tp3
a(I311
I187
tp4
a(I198
I189
tp5
a(I311
I303
tp6
a(I435
I416
tp7
a(I19
I417
tp8
a(I561
I303
tp9
a(I186
I416
tp10
a(I615
I415
tp11
a.(I39
I106
t.S'data/levels/boss.lvl'
p1
.