S'BossFight'
p1
.(I640
I480
tp1
.(I518
I47
tp1
.(lp1
(I650
I46
tp2
a(I650
I230
tp3
a(I-10
I322
tp4
a(I-10
I46
tp5
a(I-10
I414
tp6
a(I-10
I0
tp7
a(I650
I276
tp8
a(I650
I92
tp9
a(I-10
I414
tp10
a(I-10
I460
tp11
a(I650
I460
tp12
a(I-10
I92
tp13
a(I-10
I276
tp14
a(I-10
I322
tp15
a(I-10
I322
tp16
a(I-10
I368
tp17
a(I650
I138
tp18
a(I-10
I0
tp19
a(I650
I414
tp20
a(I650
I0
tp21
a(I-10
I230
tp22
a(I650
I0
tp23
a(I650
I138
tp24
a(I650
I92
tp25
a(I650
I322
tp26
a(I650
I184
tp27
a(I-10
I92
tp28
a(I650
I368
tp29
a(I650
I460
tp30
a(I-10
I92
tp31
a(I650
I368
tp32
a(I-10
I184
tp33
a(I650
I414
tp34
a(I-10
I138
tp35
a(I-10
I230
tp36
a(I650
I276
tp37
a(I650
I276
tp38
a(I650
I230
tp39
a(I-10
I230
tp40
a(I650
I368
tp41
a(I-10
I414
tp42
a(I-10
I0
tp43
a(I-10
I322
tp44
a(I650
I46
tp45
a(I-10
I230
tp46
a(I-10
I414
tp47
a(I650
I184
tp48
a(I-10
I184
tp49
a(I650
I184
tp50
a(I650
I92
tp51
a(I-10
I460
tp52
a(I650
I46
tp53
a(I-10
I368
tp54
a(I650
I138
tp55
a(I-10
I460
tp56
a(I-10
I0
tp57
a(I-10
I368
tp58
a(I650
I0
tp59
a(I650
I230
tp60
a(I650
I322
tp61
a(I-10
I368
tp62
a(I650
I276
tp63
a(I650
I184
tp64
a(I650
I460
tp65
a(I-10
I138
tp66
a(I-10
I46
tp67
a(I650
I368
tp68
a(I-10
I138
tp69
a(I650
I0
tp70
a(I-10
I276
tp71
a(I650
I230
tp72
a(I650
I46
tp73
a(I650
I322
tp74
a(I650
I138
tp75
a(I650
I414
tp76
a(I-10
I46
tp77
a(I-10
I138
tp78
a(I650
I414
tp79
a(I-10
I46
tp80
a(I650
I460
tp81
a(I-10
I276
tp82
a(I-10
I92
tp83
a(I650
I322
tp84
a(I-10
I276
tp85
a(I-10
I460
tp86
a(I-10
I184
tp87
a(I-10
I184
tp88
a(I650
I92
tp89
a.(lp1
(I624
I-8
tp2
a(I572
I-8
tp3
a(I156
I-8
tp4
a(I572
I484
tp5
a(I104
I484
tp6
a(I520
I484
tp7
a(I52
I484
tp8
a(I312
I-8
tp9
a(I468
I-8
tp10
a(I156
I484
tp11
a(I468
I-8
tp12
a(I52
I484
tp13
a(I520
I484
tp14
a(I0
I484
tp15
a(I0
I-8
tp16
a(I260
I484
tp17
a(I104
I-8
tp18
a(I572
I-8
tp19
a(I52
I-8
tp20
a(I208
I-8
tp21
a(I156
I484
tp22
a(I208
I484
tp23
a(I572
I484
tp24
a(I260
I484
tp25
a(I104
I-8
tp26
a(I364
I484
tp27
a(I468
I484
tp28
a(I52
I-8
tp29
a(I520
I484
tp30
a(I312
I-8
tp31
a(I572
I484
tp32
a(I260
I484
tp33
a(I0
I-8
tp34
a(I52
I-8
tp35
a(I468
I484
tp36
a(I156
I484
tp37
a(I0
I484
tp38
a(I260
I-8
tp39
a(I416
I-8
tp40
a(I624
I484
tp41
a(I572
I484
tp42
a(I416
I-8
tp43
a(I0
I484
tp44
a(I260
I484
tp45
a(I624
I-8
tp46
a(I364
I484
tp47
a(I468
I484
tp48
a(I468
I-8
tp49
a(I156
I-8
tp50
a(I104
I-8
tp51
a(I624
I-8
tp52
a(I312
I-8
tp53
a(I624
I-8
tp54
a(I364
I-8
tp55
a(I416
I484
tp56
a(I0
I484
tp57
a(I624
I484
tp58
a(I624
I484
tp59
a(I260
I-8
tp60
a(I104
I484
tp61
a(I52
I-8
tp62
a(I364
I-8
tp63
a(I156
I484
tp64
a(I416
I484
tp65
a(I624
I484
tp66
a(I520
I-8
tp67
a(I364
I484
tp68
a(I0
I-8
tp69
a(I312
I484
tp70
a(I260
I-8
tp71
a(I468
I-8
tp72
a(I364
I-8
tp73
a(I0
I-8
tp74
a(I468
I484
tp75
a(I208
I-8
tp76
a(I208
I484
tp77
a(I520
I-8
tp78
a(I312
I484
tp79
a(I364
I-8
tp80
a(I416
I484
tp81
a(I520
I-8
tp82
a(I52
I484
tp83
a(I208
I484
tp84
a(I104
I-8
tp85
a(I312
I484
tp86
a(I156
I-8
tp87
a(I572
I-8
tp88
a(I416
I-8
tp89
a(I208
I-8
tp90
a(I572
I-8
tp91
a(I104
I484
tp92
a(I52
I484
tp93
a(I104
I484
tp94
a(I520
I-8
tp95
a(I364
I484
tp96
a(I416
I484
tp97
a(I208
I484
tp98
a(I208
I-8
tp99
a(I260
I-8
tp100
a(I520
I484
tp101
a(I312
I-8
tp102
a(I312
I484
tp103
a(I416
I-8
tp104
a(I156
I-8
tp105
a.(lp1
.(lp1
.(lp1
.(I596
I446
t.S'data/levels\\boss.lvl'
p1
.