S'BossFight'
p1
.(I640
I480
tp1
.(I79
I452
tp1
.(lp1
(I650
I368
tp2
a(I393
I190
tp3
a(I650
I230
tp4
a(I650
I46
tp5
a(I650
I414
tp6
a(I-10
I46
tp7
a(I234
I163
tp8
a(I-10
I184
tp9
a(I650
I322
tp10
a(I650
I0
tp11
a(I650
I414
tp12
a(I650
I230
tp13
a(I-10
I138
tp14
a(I-10
I0
tp15
a(I650
I230
tp16
a(I-10
I460
tp17
a(I-10
I0
tp18
a(I-10
I92
tp19
a(I-10
I322
tp20
a(I-10
I414
tp21
a(I-10
I0
tp22
a(I650
I92
tp23
a(I650
I230
tp24
a(I650
I138
tp25
a(I650
I92
tp26
a(I650
I0
tp27
a(I650
I368
tp28
a(I650
I276
tp29
a(I-51
I26
tp30
a(I-10
I46
tp31
a(I532
I299
tp32
a(I-10
I276
tp33
a(I650
I138
tp34
a(I650
I92
tp35
a(I650
I414
tp36
a(I-10
I92
tp37
a(I-10
I230
tp38
a(I-10
I322
tp39
a(I650
I92
tp40
a(I-10
I414
tp41
a(I650
I46
tp42
a(I650
I322
tp43
a(I393
I164
tp44
a(I-10
I414
tp45
a(I650
I276
tp46
a(I-10
I414
tp47
a(I-10
I414
tp48
a(I-10
I138
tp49
a(I-10
I276
tp50
a(I-10
I230
tp51
a(I650
I138
tp52
a(I650
I184
tp53
a(I104
I298
tp54
a(I393
I230
tp55
a(I-10
I230
tp56
a(I-10
I230
tp57
a(I-10
I368
tp58
a(I-10
I184
tp59
a(I-10
I368
tp60
a(I650
I322
tp61
a(I-10
I368
tp62
a(I-10
I138
tp63
a(I650
I0
tp64
a(I234
I229
tp65
a(I650
I322
tp66
a(I650
I138
tp67
a(I650
I460
tp68
a(I-10
I138
tp69
a(I-10
I276
tp70
a(I-10
I92
tp71
a(I650
I184
tp72
a(I-10
I460
tp73
a(I650
I184
tp74
a(I650
I368
tp75
a(I104
I282
tp76
a(I650
I460
tp77
a(I-10
I46
tp78
a(I650
I276
tp79
a(I650
I92
tp80
a(I650
I368
tp81
a(I234
I185
tp82
a(I-10
I368
tp83
a(I-10
I92
tp84
a(I650
I46
tp85
a(I-10
I368
tp86
a(I-10
I184
tp87
a(I650
I276
tp88
a(I650
I0
tp89
a(I650
I46
tp90
a(I-10
I184
tp91
a(I-10
I0
tp92
a(I-10
I92
tp93
a(I532
I281
tp94
a(I650
I322
tp95
a(I-10
I460
tp96
a(I650
I460
tp97
a(I-10
I138
tp98
a(I650
I46
tp99
a(I532
I343
tp100
a(I650
I0
tp101
a(I-10
I46
tp102
a(I650
I460
tp103
a(I-10
I184
tp104
a(I650
I414
tp105
a(I-10
I276
tp106
a(I650
I138
tp107
a(I650
I368
tp108
a(I-10
I460
tp109
a(I104
I343
tp110
a(I-10
I322
tp111
a(I650
I276
tp112
a(I-10
I230
tp113
a(I-10
I46
tp114
a(I-10
I322
tp115
a(I-10
I0
tp116
a(I-10
I322
tp117
a(I650
I184
tp118
a(I650
I414
tp119
a(I-10
I276
tp120
a(I-10
I460
tp121
a(I650
I460
tp122
a(I650
I230
tp123
a(I650
I184
tp124
a.(lp1
(I572
I-8
tp2
a(I520
I484
tp3
a(I512
I369
tp4
a(I60
I138
tp5
a(I104
I-8
tp6
a(I520
I484
tp7
a(I626
I138
tp8
a(I34
I255
tp9
a(I104
I-8
tp10
a(I212
I255
tp11
a(I156
I484
tp12
a(I520
I484
tp13
a(I0
I-8
tp14
a(I52
I-8
tp15
a(I383
I138
tp16
a(I364
I484
tp17
a(I0
I484
tp18
a(I468
I-8
tp19
a(I572
I484
tp20
a(I357
I369
tp21
a(I208
I-8
tp22
a(I624
I-8
tp23
a(I572
I-8
tp24
a(I364
I-8
tp25
a(I156
I-8
tp26
a(I572
I-8
tp27
a(I513
I255
tp28
a(I208
I484
tp29
a(I280
I369
tp30
a(I624
I-8
tp31
a(I572
I-8
tp32
a(I624
I484
tp33
a(I156
I484
tp34
a(I104
I484
tp35
a(I319
I369
tp36
a(I325
I138
tp37
a(I364
I484
tp38
a(I208
I-8
tp39
a(I416
I-8
tp40
a(I364
I-8
tp41
a(I260
I-8
tp42
a(I312
I-8
tp43
a(I572
I484
tp44
a(I416
I-8
tp45
a(I312
I-8
tp46
a(I52
I484
tp47
a(I260
I484
tp48
a(I572
I484
tp49
a(I104
I-8
tp50
a(I208
I-8
tp51
a(I395
I369
tp52
a(I585
I255
tp53
a(I476
I255
tp54
a(I260
I484
tp55
a(I365
I138
tp56
a(I617
I255
tp57
a(I520
I-8
tp58
a(I364
I-8
tp59
a(I52
I-8
tp60
a(I116
I138
tp61
a(I260
I484
tp62
a(I16
I255
tp63
a(I567
I138
tp64
a(I0
I-8
tp65
a(I572
I-8
tp66
a(I156
I484
tp67
a(I260
I-8
tp68
a(I260
I484
tp69
a(I624
I484
tp70
a(I263
I255
tp71
a(I468
I484
tp72
a(I260
I484
tp73
a(I151
I138
tp74
a(I312
I484
tp75
a(I468
I-8
tp76
a(I624
I-8
tp77
a(I52
I484
tp78
a(I483
I369
tp79
a(I312
I-8
tp80
a(I78
I255
tp81
a(I156
I-8
tp82
a(I606
I138
tp83
a(I0
I484
tp84
a(I189
I369
tp85
a(I104
I484
tp86
a(I364
I484
tp87
a(I437
I369
tp88
a(I520
I-8
tp89
a(I156
I484
tp90
a(I0
I484
tp91
a(I208
I-8
tp92
a(I156
I-8
tp93
a(I312
I484
tp94
a(I52
I484
tp95
a(I468
I-8
tp96
a(I0
I-8
tp97
a(I350
I255
tp98
a(I624
I484
tp99
a(I52
I-8
tp100
a(I572
I484
tp101
a(I312
I484
tp102
a(I468
I484
tp103
a(I387
I255
tp104
a(I23
I369
tp105
a(I572
I484
tp106
a(I237
I369
tp107
a(I624
I484
tp108
a(I468
I484
tp109
a(I416
I-8
tp110
a(I0
I-8
tp111
a(I0
I484
tp112
a(I132
I255
tp113
a(I520
I-8
tp114
a(I468
I484
tp115
a(I520
I-8
tp116
a(I468
I-8
tp117
a(I624
I-8
tp118
a(I312
I484
tp119
a(I52
I484
tp120
a(I416
I484
tp121
a(I19
I138
tp122
a(I208
I-8
tp123
a(I104
I484
tp124
a(I260
I-8
tp125
a(I104
I484
tp126
a(I156
I-8
tp127
a(I446
I255
tp128
a(I208
I484
tp129
a(I260
I-8
tp130
a(I176
I255
tp131
a(I312
I-8
tp132
a(I520
I484
tp133
a(I200
I138
tp134
a(I156
I484
tp135
a(I528
I138
tp136
a(I0
I484
tp137
a(I468
I484
tp138
a(I558
I255
tp139
a(I208
I484
tp140
a(I313
I255
tp141
a(I364
I484
tp142
a(I416
I484
tp143
a(I208
I484
tp144
a(I52
I-8
tp145
a(I312
I-8
tp146
a(I479
I138
tp147
a(I52
I-8
tp148
a(I247
I138
tp149
a(I260
I-8
tp150
a(I364
I-8
tp151
a(I416
I-8
tp152
a(I619
I369
tp153
a(I208
I484
tp154
a(I364
I484
tp155
a(I281
I138
tp156
a(I505
I369
tp157
a(I74
I369
tp158
a(I416
I484
tp159
a(I520
I-8
tp160
a(I430
I138
tp161
a(I104
I-8
tp162
a(I364
I-8
tp163
a(I126
I369
tp164
a(I416
I-8
tp165
a(I124
I255
tp166
a(I624
I484
tp167
a(I104
I-8
tp168
a(I91
I138
tp169
a(I52
I484
tp170
a(I597
I369
tp171
a(I416
I484
tp172
a(I624
I-8
tp173
a(I412
I255
tp174
a(I0
I-8
tp175
a(I520
I484
tp176
a(I312
I484
tp177
a(I416
I484
tp178
a(I139
I369
tp179
a(I562
I369
tp180
a(I156
I-8
tp181
a(I468
I-8
tp182
a(I104
I484
tp183
a.(lp1
.(lp1
.(lp1
(I435
I416
tp2
a(I80
I302
tp3
a(I19
I417
tp4
a(I561
I303
tp5
a(I186
I416
tp6
a(I615
I415
tp7
a(I427
I189
tp8
a(I311
I187
tp9
a(I198
I189
tp10
a(I311
I303
tp11
a.(I39
I106
t.S'data/levels\\boss.lvl'
p1
.