S'Office'
p1
.(I1000
I1000
tp1
.(I31
I971
tp1
.(lp1
(I-10
I736
tp2
a(I428
I939
tp3
a(I-10
I46
tp4
a(I-10
I92
tp5
a(I391
I250
tp6
a(I-10
I506
tp7
a(I299
I18
tp8
a(I1010
I828
tp9
a(I582
I704
tp10
a(I1010
I322
tp11
a(I1010
I184
tp12
a(I242
I448
tp13
a(I1010
I644
tp14
a(I-10
I230
tp15
a(I391
I170
tp16
a(I1010
I138
tp17
a(I1010
I736
tp18
a(I472
I469
tp19
a(I371
I174
tp20
a(I-10
I0
tp21
a(I1010
I828
tp22
a(I1010
I0
tp23
a(I1010
I184
tp24
a(I1010
I920
tp25
a(I242
I511
tp26
a(I1010
I92
tp27
a(I-10
I276
tp28
a(I-10
I644
tp29
a(I1010
I460
tp30
a(I1010
I92
tp31
a(I1010
I414
tp32
a(I-10
I920
tp33
a(I1010
I460
tp34
a(I1010
I644
tp35
a(I1010
I552
tp36
a(I-10
I184
tp37
a(I1010
I0
tp38
a(I640
I394
tp39
a(I428
I980
tp40
a(I1010
I874
tp41
a(I1010
I46
tp42
a(I-10
I506
tp43
a(I1010
I782
tp44
a(I1010
I92
tp45
a(I241
I334
tp46
a(I-10
I368
tp47
a(I-10
I874
tp48
a(I-10
I138
tp49
a(I-10
I598
tp50
a(I-10
I782
tp51
a(I-10
I690
tp52
a(I1010
I828
tp53
a(I1010
I230
tp54
a(I1010
I552
tp55
a(I1010
I506
tp56
a(I1010
I368
tp57
a(I-10
I644
tp58
a(I-10
I966
tp59
a(I-10
I874
tp60
a(I-10
I736
tp61
a(I918
I609
tp62
a(I241
I393
tp63
a(I391
I257
tp64
a(I582
I748
tp65
a(I-10
I828
tp66
a(I1010
I966
tp67
a(I1010
I644
tp68
a(I-10
I920
tp69
a(I918
I349
tp70
a(I-10
I966
tp71
a(I-10
I276
tp72
a(I391
I337
tp73
a(I-10
I460
tp74
a(I-10
I368
tp75
a(I-10
I460
tp76
a(I1010
I138
tp77
a(I-10
I184
tp78
a(I-10
I460
tp79
a(I238
I864
tp80
a(I-10
I552
tp81
a(I1010
I874
tp82
a(I1010
I230
tp83
a(I146
I629
tp84
a(I-10
I552
tp85
a(I918
I337
tp86
a(I612
I918
tp87
a(I-10
I414
tp88
a(I-10
I46
tp89
a(I-103
I418
tp90
a(I1010
I414
tp91
a(I-10
I322
tp92
a(I146
I586
tp93
a(I371
I140
tp94
a(I-10
I138
tp95
a(I-10
I0
tp96
a(I640
I350
tp97
a(I-10
I828
tp98
a(I391
I282
tp99
a(I1010
I552
tp100
a(I1010
I736
tp101
a(I1010
I598
tp102
a(I1010
I184
tp103
a(I299
I46
tp104
a(I1010
I322
tp105
a(I1010
I690
tp106
a(I241
I349
tp107
a(I-10
I322
tp108
a(I299
I86
tp109
a(I1010
I230
tp110
a(I1010
I920
tp111
a(I1010
I782
tp112
a(I640
I338
tp113
a(I918
I512
tp114
a(I1010
I690
tp115
a(I1010
I874
tp116
a(I1010
I506
tp117
a(I1010
I0
tp118
a(I1010
I966
tp119
a(I-10
I736
tp120
a(I1010
I322
tp121
a(I391
I394
tp122
a(I-10
I828
tp123
a(I1010
I368
tp124
a(I1010
I414
tp125
a(I-10
I644
tp126
a(I1010
I506
tp127
a(I1010
I276
tp128
a(I-10
I138
tp129
a(I-10
I46
tp130
a(I1010
I598
tp131
a(I146
I704
tp132
a(I238
I803
tp133
a(I146
I565
tp134
a(I-10
I552
tp135
a(I1010
I46
tp136
a(I-10
I276
tp137
a(I391
I141
tp138
a(I918
I467
tp139
a(I-10
I920
tp140
a(I1010
I690
tp141
a(I472
I510
tp142
a(I-10
I230
tp143
a(I1010
I598
tp144
a(I-10
I782
tp145
a(I391
I198
tp146
a(I-10
I230
tp147
a(I1010
I460
tp148
a(I582
I685
tp149
a(I146
I747
tp150
a(I-10
I414
tp151
a(I1010
I138
tp152
a(I1010
I736
tp153
a(I-10
I184
tp154
a(I-10
I690
tp155
a(I-10
I368
tp156
a(I472
I450
tp157
a(I1010
I782
tp158
a(I-10
I92
tp159
a(I-10
I782
tp160
a(I-10
I598
tp161
a(I-10
I690
tp162
a(I-10
I874
tp163
a(I428
I919
tp164
a(I918
I448
tp165
a(I-10
I966
tp166
a(I-10
I0
tp167
a(I-10
I322
tp168
a(I1010
I368
tp169
a(I-10
I92
tp170
a(I1010
I46
tp171
a(I-10
I414
tp172
a(I391
I354
tp173
a(I146
I683
tp174
a(I-10
I506
tp175
a(I1010
I276
tp176
a(I1010
I276
tp177
a(I-10
I598
tp178
a(I1010
I920
tp179
a(I612
I961
tp180
a(I238
I821
tp181
a(I918
I394
tp182
a(I1010
I966
tp183
a(I918
I628
tp184
a(I612
I987
tp185
a(I242
I466
tp186
a(I918
I565
tp187
a.(lp1
(I416
I1005
tp2
a(I832
I-10
tp3
a(I160
I538
tp4
a(I92
I192
tp5
a(I936
I1005
tp6
a(I760
I538
tp7
a(I474
I775
tp8
a(I563
I114
tp9
a(I285
I657
tp10
a(I520
I-10
tp11
a(I156
I1005
tp12
a(I104
I1005
tp13
a(I17
I114
tp14
a(I866
I310
tp15
a(I59
I114
tp16
a(I610
I225
tp17
a(I52
I-10
tp18
a(I208
I538
tp19
a(I99
I775
tp20
a(I780
I1005
tp21
a(I208
I1005
tp22
a(I624
I-10
tp23
a(I936
I1005
tp24
a(I133
I421
tp25
a(I888
I230
tp26
a(I931
I114
tp27
a(I208
I1005
tp28
a(I187
I306
tp29
a(I748
I114
tp30
a(I45
I192
tp31
a(I856
I776
tp32
a(I660
I657
tp33
a(I50
I775
tp34
a(I928
I657
tp35
a(I5
I306
tp36
a(I104
I-10
tp37
a(I601
I422
tp38
a(I104
I-10
tp39
a(I260
I-10
tp40
a(I520
I1005
tp41
a(I460
I422
tp42
a(I658
I225
tp43
a(I520
I1005
tp44
a(I572
I1005
tp45
a(I705
I225
tp46
a(I312
I1005
tp47
a(I716
I538
tp48
a(I728
I-10
tp49
a(I748
I422
tp50
a(I237
I657
tp51
a(I291
I775
tp52
a(I0
I1005
tp53
a(I559
I775
tp54
a(I521
I775
tp55
a(I52
I1005
tp56
a(I484
I310
tp57
a(I896
I776
tp58
a(I260
I1005
tp59
a(I430
I422
tp60
a(I372
I114
tp61
a(I625
I776
tp62
a(I312
I-10
tp63
a(I988
I1005
tp64
a(I673
I776
tp65
a(I104
I1005
tp66
a(I416
I-10
tp67
a(I898
I310
tp68
a(I832
I1005
tp69
a(I451
I538
tp70
a(I832
I1005
tp71
a(I792
I114
tp72
a(I156
I-10
tp73
a(I401
I538
tp74
a(I578
I310
tp75
a(I421
I114
tp76
a(I468
I1005
tp77
a(I572
I-10
tp78
a(I464
I225
tp79
a(I728
I-10
tp80
a(I780
I-10
tp81
a(I656
I114
tp82
a(I468
I1005
tp83
a(I147
I114
tp84
a(I832
I-10
tp85
a(I728
I-10
tp86
a(I520
I-10
tp87
a(I43
I306
tp88
a(I532
I310
tp89
a(I723
I310
tp90
a(I936
I-10
tp91
a(I568
I657
tp92
a(I468
I-10
tp93
a(I382
I657
tp94
a(I792
I422
tp95
a(I595
I538
tp96
a(I884
I-10
tp97
a(I413
I225
tp98
a(I333
I657
tp99
a(I141
I192
tp100
a(I572
I-10
tp101
a(I156
I-10
tp102
a(I546
I538
tp103
a(I617
I657
tp104
a(I52
I1005
tp105
a(I150
I775
tp106
a(I592
I892
tp107
a(I936
I-10
tp108
a(I75
I538
tp109
a(I557
I422
tp110
a(I780
I1005
tp111
a(I364
I-10
tp112
a(I572
I1005
tp113
a(I260
I-10
tp114
a(I468
I-10
tp115
a(I624
I1005
tp116
a(I0
I1005
tp117
a(I0
I-10
tp118
a(I980
I114
tp119
a(I988
I-10
tp120
a(I676
I1005
tp121
a(I292
I192
tp122
a(I189
I192
tp123
a(I113
I538
tp124
a(I434
I310
tp125
a(I627
I310
tp126
a(I676
I-10
tp127
a(I200
I775
tp128
a(I12
I192
tp129
a(I260
I1005
tp130
a(I342
I192
tp131
a(I572
I-10
tp132
a(I312
I-10
tp133
a(I364
I1005
tp134
a(I104
I1005
tp135
a(I330
I114
tp136
a(I52
I-10
tp137
a(I416
I1005
tp138
a(I764
I776
tp139
a(I166
I657
tp140
a(I448
I892
tp141
a(I520
I1005
tp142
a(I312
I1005
tp143
a(I429
I657
tp144
a(I412
I310
tp145
a(I624
I-10
tp146
a(I193
I657
tp147
a(I934
I230
tp148
a(I104
I-10
tp149
a(I708
I657
tp150
a(I0
I-10
tp151
a(I988
I1005
tp152
a(I83
I421
tp153
a(I353
I538
tp154
a(I780
I1005
tp155
a(I231
I306
tp156
a(I728
I891
tp157
a(I673
I538
tp158
a(I884
I1005
tp159
a(I208
I1005
tp160
a(I312
I-10
tp161
a(I136
I306
tp162
a(I988
I1005
tp163
a(I123
I891
tp164
a(I240
I192
tp165
a(I702
I114
tp166
a(I626
I892
tp167
a(I517
I114
tp168
a(I364
I1005
tp169
a(I887
I422
tp170
a(I497
I538
tp171
a(I719
I776
tp172
a(I0
I-10
tp173
a(I811
I776
tp174
a(I509
I422
tp175
a(I847
I657
tp176
a(I497
I892
tp177
a(I40
I421
tp178
a(I52
I-10
tp179
a(I286
I114
tp180
a(I217
I891
tp181
a(I304
I538
tp182
a(I94
I306
tp183
a(I832
I1005
tp184
a(I625
I538
tp185
a(I839
I114
tp186
a(I513
I225
tp187
a(I884
I-10
tp188
a(I771
I310
tp189
a(I840
I422
tp190
a(I676
I310
tp191
a(I936
I-10
tp192
a(I676
I-10
tp193
a(I238
I114
tp194
a(I898
I422
tp195
a(I649
I422
tp196
a(I52
I1005
tp197
a(I406
I892
tp198
a(I676
I1005
tp199
a(I221
I421
tp200
a(I819
I310
tp201
a(I611
I114
tp202
a(I728
I1005
tp203
a(I260
I-10
tp204
a(I773
I891
tp205
a(I603
I775
tp206
a(I364
I-10
tp207
a(I183
I421
tp208
a(I156
I1005
tp209
a(I522
I657
tp210
a(I624
I-10
tp211
a(I470
I114
tp212
a(I103
I114
tp213
a(I988
I-10
tp214
a(I971
I776
tp215
a(I337
I775
tp216
a(I936
I1005
tp217
a(I208
I-10
tp218
a(I468
I-10
tp219
a(I881
I657
tp220
a(I255
I538
tp221
a(I976
I657
tp222
a(I728
I1005
tp223
a(I780
I-10
tp224
a(I208
I-10
tp225
a(I208
I-10
tp226
a(I156
I1005
tp227
a(I364
I1005
tp228
a(I884
I-10
tp229
a(I0
I421
tp230
a(I988
I-10
tp231
a(I416
I-10
tp232
a(I884
I1005
tp233
a(I780
I-10
tp234
a(I545
I892
tp235
a(I379
I775
tp236
a(I520
I-10
tp237
a(I572
I1005
tp238
a(I72
I891
tp239
a(I0
I775
tp240
a(I978
I230
tp241
a(I429
I775
tp242
a(I260
I1005
tp243
a(I832
I-10
tp244
a(I23
I891
tp245
a(I624
I1005
tp246
a(I243
I775
tp247
a(I562
I225
tp248
a(I478
I657
tp249
a(I468
I1005
tp250
a(I410
I422
tp251
a(I0
I1005
tp252
a(I364
I-10
tp253
a(I698
I422
tp254
a(I156
I-10
tp255
a(I624
I1005
tp256
a(I189
I114
tp257
a(I804
I657
tp258
a(I728
I1005
tp259
a(I676
I-10
tp260
a(I883
I114
tp261
a(I168
I891
tp262
a(I884
I1005
tp263
a(I416
I1005
tp264
a(I676
I1005
tp265
a(I808
I538
tp266
a(I939
I776
tp267
a(I416
I-10
tp268
a(I312
I1005
tp269
a(I898
I538
tp270
a(I757
I657
tp271
a(I853
I538
tp272
a.(lp1
(I125
I128
tp2
a(I929
I9
tp3
a(I324
I671
tp4
a(I176
I436
tp5
a(I635
I904
tp6
a(I507
I11
tp7
a(I395
I902
tp8
a(I757
I323
tp9
a(I392
I437
tp10
a(I127
I321
tp11
a.(lp1
(I82
I741
tp2
a(I697
I970
tp3
a(I459
I389
tp4
a(I339
I503
tp5
a(I596
I502
tp6
a(I982
I621
tp7
a(I170
I75
tp8
a(I685
I745
tp9
a(I444
I619
tp10
a(I650
I745
tp11
a(I937
I615
tp12
a(I502
I69
tp13
a(I461
I968
tp14
a(I955
I614
tp15
a(I608
I75
tp16
a.(lp1
(I202
I821
tp2
a(I209
I588
tp3
a(I83
I469
tp4
a(I519
I470
tp5
a(I707
I155
tp6
a(I455
I155
tp7
a(I875
I703
tp8
a(I975
I279
tp9
a(I185
I355
tp10
a(I770
I935
tp11
a(I881
I162
tp12
a(I341
I125
tp13
a(I669
I354
tp14
a(I398
I825
tp15
a(I427
I469
tp16
a(I753
I470
tp17
a(I617
I825
tp18
a(I40
I121
tp19
a(I724
I824
tp20
a(I120
I939
tp21
a(I527
I937
tp22
a.(I259
I69
t.