S'Office'
p1
.(I1000
I1000
tp1
.(I31
I971
tp1
.(lp1
(I1010
I368
tp2
a(I1010
I46
tp3
a(I-10
I414
tp4
a(I1010
I782
tp5
a(I1010
I460
tp6
a(I582
I748
tp7
a(I-10
I828
tp8
a(I1010
I414
tp9
a(I1010
I92
tp10
a(I146
I683
tp11
a(I582
I685
tp12
a(I582
I704
tp13
a(I-10
I460
tp14
a(I-10
I138
tp15
a(I1010
I552
tp16
a(I-10
I690
tp17
a(I238
I864
tp18
a(I-10
I506
tp19
a(I1010
I138
tp20
a(I1010
I736
tp21
a(I1010
I276
tp22
a(I1010
I506
tp23
a(I-10
I184
tp24
a(I612
I961
tp25
a(I-10
I552
tp26
a(I-10
I230
tp27
a(I-10
I874
tp28
a(I428
I939
tp29
a(I146
I704
tp30
a(I1010
I230
tp31
a(I-10
I782
tp32
a(I-10
I276
tp33
a(I238
I821
tp34
a(I-10
I598
tp35
a(I-10
I92
tp36
a(I-10
I46
tp37
a(I612
I918
tp38
a(I-10
I322
tp39
a(I-10
I644
tp40
a(I612
I987
tp41
a(I1010
I966
tp42
a(I1010
I0
tp43
a(I-10
I0
tp44
a(I-10
I920
tp45
a(I-103
I418
tp46
a(I428
I919
tp47
a(I1010
I690
tp48
a(I-10
I736
tp49
a(I1010
I828
tp50
a(I146
I747
tp51
a(I1010
I644
tp52
a(I1010
I598
tp53
a(I1010
I184
tp54
a(I238
I803
tp55
a(I1010
I874
tp56
a(I-10
I966
tp57
a(I1010
I322
tp58
a(I428
I980
tp59
a(I1010
I920
tp60
a(I-10
I368
tp61
a.(lp1
(I104
I-10
tp2
a(I976
I657
tp3
a(I928
I657
tp4
a(I312
I1005
tp5
a(I364
I-10
tp6
a(I156
I-10
tp7
a(I156
I1005
tp8
a(I364
I1005
tp9
a(I208
I-10
tp10
a(I99
I775
tp11
a(I416
I-10
tp12
a(I719
I776
tp13
a(I168
I891
tp14
a(I468
I-10
tp15
a(I896
I776
tp16
a(I429
I775
tp17
a(I468
I1005
tp18
a(I333
I657
tp19
a(I520
I-10
tp20
a(I520
I1005
tp21
a(I728
I891
tp22
a(I572
I-10
tp23
a(I617
I657
tp24
a(I572
I1005
tp25
a(I382
I657
tp26
a(I217
I891
tp27
a(I337
I775
tp28
a(I624
I1005
tp29
a(I416
I1005
tp30
a(I23
I891
tp31
a(I624
I-10
tp32
a(I559
I775
tp33
a(I764
I776
tp34
a(I728
I-10
tp35
a(I728
I1005
tp36
a(I0
I1005
tp37
a(I780
I-10
tp38
a(I166
I657
tp39
a(I592
I892
tp40
a(I780
I1005
tp41
a(I72
I891
tp42
a(I832
I1005
tp43
a(I193
I657
tp44
a(I884
I-10
tp45
a(I448
I892
tp46
a(I884
I1005
tp47
a(I936
I-10
tp48
a(I200
I775
tp49
a(I936
I1005
tp50
a(I988
I-10
tp51
a(I660
I657
tp52
a(I312
I-10
tp53
a(I208
I1005
tp54
a(I52
I-10
tp55
a(I291
I775
tp56
a(I988
I1005
tp57
a(I847
I657
tp58
a(I832
I-10
tp59
a(I50
I775
tp60
a(I52
I1005
tp61
a(I497
I892
tp62
a(I474
I775
tp63
a(I881
I657
tp64
a(I285
I657
tp65
a(I939
I776
tp66
a(I478
I657
tp67
a(I150
I775
tp68
a(I237
I657
tp69
a(I123
I891
tp70
a(I260
I-10
tp71
a(I757
I657
tp72
a(I521
I775
tp73
a(I773
I891
tp74
a(I856
I776
tp75
a(I708
I657
tp76
a(I676
I1005
tp77
a(I626
I892
tp78
a(I104
I1005
tp79
a(I545
I892
tp80
a(I625
I776
tp81
a(I429
I657
tp82
a(I522
I657
tp83
a(I0
I775
tp84
a(I673
I776
tp85
a(I0
I-10
tp86
a(I971
I776
tp87
a(I260
I1005
tp88
a(I379
I775
tp89
a(I603
I775
tp90
a(I811
I776
tp91
a(I243
I775
tp92
a(I676
I-10
tp93
a(I568
I657
tp94
a(I804
I657
tp95
a(I406
I892
tp96
a.(lp1
(I395
I902
tp2
a(I635
I904
tp3
a(I324
I671
tp4
a.(lp1
(I697
I970
tp2
a(I82
I741
tp3
a(I461
I968
tp4
a(I650
I745
tp5
a(I685
I745
tp6
a(I444
I619
tp7
a.(lp1
(I527
I937
tp2
a(I770
I935
tp3
a(I929
I707
tp4
a(I398
I825
tp5
a(I617
I825
tp6
a(I724
I824
tp7
a(I120
I939
tp8
a(I202
I821
tp9
a.(I100
I100
t.