S'Office'
p1
.(I1000
I1000
tp1
.(I31
I971
tp1
.(lp1
(I391
I337
tp2
a(I-10
I276
tp3
a(I1010
I368
tp4
a(I391
I394
tp5
a(I-10
I460
tp6
a(I1010
I414
tp7
a(I391
I354
tp8
a(I-10
I644
tp9
a(I238
I864
tp10
a(I1010
I644
tp11
a(I1010
I276
tp12
a(I1010
I276
tp13
a(I1010
I874
tp14
a(I-10
I552
tp15
a(I1010
I920
tp16
a(I146
I704
tp17
a(I146
I629
tp18
a(I640
I394
tp19
a(I238
I821
tp20
a(I146
I565
tp21
a(I612
I918
tp22
a(I1010
I46
tp23
a(I1010
I966
tp24
a(I918
I467
tp25
a(I-103
I418
tp26
a(I1010
I92
tp27
a(I242
I466
tp28
a(I1010
I690
tp29
a(I-10
I322
tp30
a(I1010
I46
tp31
a(I1010
I782
tp32
a(I918
I394
tp33
a(I1010
I138
tp34
a(I1010
I874
tp35
a(I918
I609
tp36
a(I-10
I414
tp37
a(I-10
I322
tp38
a(I1010
I506
tp39
a(I582
I704
tp40
a(I-10
I414
tp41
a(I1010
I598
tp42
a(I-10
I690
tp43
a(I299
I18
tp44
a(I146
I747
tp45
a(I1010
I736
tp46
a(I241
I393
tp47
a(I1010
I322
tp48
a(I1010
I736
tp49
a(I612
I961
tp50
a(I238
I803
tp51
a(I918
I337
tp52
a(I428
I980
tp53
a(I428
I939
tp54
a(I-10
I276
tp55
a(I-10
I46
tp56
a(I1010
I782
tp57
a(I612
I987
tp58
a(I-10
I920
tp59
a(I1010
I414
tp60
a(I241
I334
tp61
a(I-10
I736
tp62
a(I472
I510
tp63
a(I146
I586
tp64
a(I-10
I368
tp65
a(I-10
I46
tp66
a(I-10
I782
tp67
a(I-10
I138
tp68
a(I-10
I874
tp69
a(I918
I628
tp70
a(I1010
I460
tp71
a(I-10
I828
tp72
a(I-10
I598
tp73
a(I-10
I506
tp74
a(I582
I685
tp75
a(I1010
I552
tp76
a(I1010
I552
tp77
a(I1010
I828
tp78
a(I1010
I138
tp79
a(I1010
I184
tp80
a(I1010
I368
tp81
a(I242
I448
tp82
a(I-10
I184
tp83
a(I1010
I322
tp84
a(I-10
I874
tp85
a(I-10
I782
tp86
a(I-10
I92
tp87
a(I1010
I920
tp88
a(I582
I748
tp89
a(I-10
I0
tp90
a(I-10
I690
tp91
a(I1010
I690
tp92
a(I1010
I644
tp93
a(I299
I86
tp94
a(I918
I448
tp95
a(I1010
I0
tp96
a(I-10
I230
tp97
a(I1010
I92
tp98
a(I1010
I828
tp99
a(I1010
I184
tp100
a(I472
I450
tp101
a(I918
I512
tp102
a(I-10
I966
tp103
a(I1010
I460
tp104
a(I146
I683
tp105
a(I-10
I138
tp106
a(I-10
I552
tp107
a(I-10
I506
tp108
a(I918
I565
tp109
a(I1010
I598
tp110
a(I640
I350
tp111
a(I1010
I230
tp112
a(I299
I46
tp113
a(I-10
I966
tp114
a(I-10
I230
tp115
a(I-10
I368
tp116
a(I241
I349
tp117
a(I1010
I230
tp118
a(I472
I469
tp119
a(I-10
I598
tp120
a(I640
I338
tp121
a(I1010
I966
tp122
a(I1010
I0
tp123
a(I428
I919
tp124
a(I1010
I506
tp125
a(I918
I349
tp126
a(I242
I511
tp127
a(I-10
I0
tp128
a(I-10
I736
tp129
a(I-10
I460
tp130
a(I-10
I644
tp131
a(I-10
I92
tp132
a(I-10
I828
tp133
a(I-10
I184
tp134
a(I-10
I920
tp135
a.(lp1
(I364
I-10
tp2
a(I513
I225
tp3
a(I0
I1005
tp4
a(I237
I657
tp5
a(I189
I114
tp6
a(I676
I310
tp7
a(I780
I1005
tp8
a(I521
I775
tp9
a(I883
I114
tp10
a(I52
I1005
tp11
a(I113
I538
tp12
a(I484
I310
tp13
a(I676
I1005
tp14
a(I611
I114
tp15
a(I200
I775
tp16
a(I625
I776
tp17
a(I416
I-10
tp18
a(I603
I775
tp19
a(I312
I-10
tp20
a(I673
I776
tp21
a(I853
I538
tp22
a(I156
I1005
tp23
a(I728
I1005
tp24
a(I780
I-10
tp25
a(I808
I538
tp26
a(I187
I306
tp27
a(I260
I1005
tp28
a(I595
I538
tp29
a(I676
I-10
tp30
a(I702
I114
tp31
a(I43
I306
tp32
a(I208
I538
tp33
a(I364
I1005
tp34
a(I673
I538
tp35
a(I83
I421
tp36
a(I468
I1005
tp37
a(I610
I225
tp38
a(I156
I1005
tp39
a(I649
I422
tp40
a(I532
I310
tp41
a(I208
I1005
tp42
a(I168
I891
tp43
a(I676
I1005
tp44
a(I434
I310
tp45
a(I896
I776
tp46
a(I103
I114
tp47
a(I412
I310
tp48
a(I656
I114
tp49
a(I285
I657
tp50
a(I884
I1005
tp51
a(I887
I422
tp52
a(I617
I657
tp53
a(I460
I422
tp54
a(I401
I538
tp55
a(I624
I-10
tp56
a(I166
I657
tp57
a(I792
I114
tp58
a(I936
I1005
tp59
a(I337
I775
tp60
a(I312
I1005
tp61
a(I468
I1005
tp62
a(I624
I-10
tp63
a(I881
I657
tp64
a(I104
I-10
tp65
a(I150
I775
tp66
a(I866
I310
tp67
a(I698
I422
tp68
a(I238
I114
tp69
a(I757
I657
tp70
a(I52
I-10
tp71
a(I189
I192
tp72
a(I193
I657
tp73
a(I708
I657
tp74
a(I728
I-10
tp75
a(I133
I421
tp76
a(I379
I775
tp77
a(I792
I422
tp78
a(I936
I-10
tp79
a(I545
I892
tp80
a(I517
I114
tp81
a(I333
I657
tp82
a(I660
I657
tp83
a(I0
I775
tp84
a(I497
I538
tp85
a(I156
I-10
tp86
a(I5
I306
tp87
a(I260
I1005
tp88
a(I509
I422
tp89
a(I592
I892
tp90
a(I260
I-10
tp91
a(I243
I775
tp92
a(I286
I114
tp93
a(I364
I-10
tp94
a(I406
I892
tp95
a(I410
I422
tp96
a(I625
I538
tp97
a(I468
I-10
tp98
a(I716
I538
tp99
a(I156
I-10
tp100
a(I771
I310
tp101
a(I980
I114
tp102
a(I291
I775
tp103
a(I676
I-10
tp104
a(I898
I422
tp105
a(I136
I306
tp106
a(I468
I-10
tp107
a(I931
I114
tp108
a(I658
I225
tp109
a(I240
I192
tp110
a(I884
I-10
tp111
a(I45
I192
tp112
a(I572
I1005
tp113
a(I936
I-10
tp114
a(I572
I-10
tp115
a(I928
I657
tp116
a(I429
I775
tp117
a(I0
I-10
tp118
a(I217
I891
tp119
a(I601
I422
tp120
a(I23
I891
tp121
a(I40
I421
tp122
a(I557
I422
tp123
a(I728
I-10
tp124
a(I478
I657
tp125
a(I94
I306
tp126
a(I260
I-10
tp127
a(I705
I225
tp128
a(I988
I1005
tp129
a(I832
I1005
tp130
a(I856
I776
tp131
a(I884
I1005
tp132
a(I104
I1005
tp133
a(I421
I114
tp134
a(I52
I-10
tp135
a(I522
I657
tp136
a(I898
I538
tp137
a(I12
I192
tp138
a(I104
I1005
tp139
a(I92
I192
tp140
a(I971
I776
tp141
a(I353
I538
tp142
a(I723
I310
tp143
a(I208
I1005
tp144
a(I72
I891
tp145
a(I811
I776
tp146
a(I780
I1005
tp147
a(I312
I1005
tp148
a(I804
I657
tp149
a(I372
I114
tp150
a(I416
I1005
tp151
a(I451
I538
tp152
a(I160
I538
tp153
a(I988
I-10
tp154
a(I520
I1005
tp155
a(I578
I310
tp156
a(I563
I114
tp157
a(I208
I-10
tp158
a(I847
I657
tp159
a(I464
I225
tp160
a(I17
I114
tp161
a(I728
I1005
tp162
a(I819
I310
tp163
a(I572
I-10
tp164
a(I832
I1005
tp165
a(I474
I775
tp166
a(I976
I657
tp167
a(I728
I891
tp168
a(I382
I657
tp169
a(I52
I1005
tp170
a(I416
I1005
tp171
a(I221
I421
tp172
a(I627
I310
tp173
a(I764
I776
tp174
a(I939
I776
tp175
a(I773
I891
tp176
a(I342
I192
tp177
a(I988
I1005
tp178
a(I183
I421
tp179
a(I123
I891
tp180
a(I330
I114
tp181
a(I898
I310
tp182
a(I832
I-10
tp183
a(I470
I114
tp184
a(I448
I892
tp185
a(I626
I892
tp186
a(I760
I538
tp187
a(I936
I1005
tp188
a(I429
I657
tp189
a(I884
I-10
tp190
a(I292
I192
tp191
a(I255
I538
tp192
a(I0
I-10
tp193
a(I780
I-10
tp194
a(I59
I114
tp195
a(I208
I-10
tp196
a(I231
I306
tp197
a(I520
I-10
tp198
a(I99
I775
tp199
a(I0
I421
tp200
a(I312
I-10
tp201
a(I568
I657
tp202
a(I888
I230
tp203
a(I416
I-10
tp204
a(I430
I422
tp205
a(I304
I538
tp206
a(I748
I114
tp207
a(I520
I-10
tp208
a(I364
I1005
tp209
a(I141
I192
tp210
a(I50
I775
tp211
a(I978
I230
tp212
a(I719
I776
tp213
a(I546
I538
tp214
a(I104
I-10
tp215
a(I832
I-10
tp216
a(I497
I892
tp217
a(I75
I538
tp218
a(I520
I1005
tp219
a(I562
I225
tp220
a(I934
I230
tp221
a(I147
I114
tp222
a(I572
I1005
tp223
a(I0
I1005
tp224
a(I839
I114
tp225
a(I624
I1005
tp226
a(I748
I422
tp227
a(I624
I1005
tp228
a(I840
I422
tp229
a(I988
I-10
tp230
a(I559
I775
tp231
a.(lp1
(I635
I904
tp2
a(I929
I9
tp3
a(I324
I671
tp4
a(I176
I436
tp5
a(I507
I11
tp6
a(I395
I902
tp7
a(I757
I323
tp8
a(I392
I437
tp9
a(I127
I321
tp10
a(I125
I128
tp11
a.(lp1
(I170
I75
tp2
a(I82
I741
tp3
a(I650
I745
tp4
a(I608
I75
tp5
a(I339
I503
tp6
a(I685
I745
tp7
a(I502
I69
tp8
a(I697
I970
tp9
a(I982
I621
tp10
a(I444
I619
tp11
a(I955
I614
tp12
a(I461
I968
tp13
a(I596
I502
tp14
a(I937
I615
tp15
a(I459
I389
tp16
a.(lp1
(I341
I125
tp2
a(I209
I588
tp3
a(I875
I703
tp4
a(I669
I354
tp5
a(I398
I825
tp6
a(I753
I470
tp7
a(I617
I825
tp8
a(I40
I121
tp9
a(I724
I824
tp10
a(I120
I939
tp11
a(I202
I821
tp12
a(I83
I469
tp13
a(I519
I470
tp14
a(I707
I155
tp15
a(I455
I155
tp16
a(I770
I935
tp17
a(I185
I355
tp18
a(I881
I162
tp19
a(I975
I279
tp20
a(I427
I469
tp21
a(I527
I937
tp22
a.(I259
I69
t.