S'Office'
p1
.(I1000
I1000
tp1
.(I31
I971
tp1
.(lp1
(I1010
I368
tp2
a(I640
I338
tp3
a(I1010
I782
tp4
a(I1010
I414
tp5
a(I1010
I506
tp6
a(I582
I685
tp7
a(I371
I174
tp8
a(I1010
I322
tp9
a(I1010
I736
tp10
a(I-10
I920
tp11
a(I472
I450
tp12
a(I-10
I276
tp13
a(I1010
I92
tp14
a(I1010
I828
tp15
a(I1010
I828
tp16
a(I-10
I598
tp17
a(I1010
I644
tp18
a(I-103
I418
tp19
a(I1010
I644
tp20
a(I1010
I184
tp21
a(I918
I448
tp22
a(I1010
I874
tp23
a(I640
I394
tp24
a(I-10
I138
tp25
a(I-10
I276
tp26
a(I1010
I690
tp27
a(I1010
I368
tp28
a(I-10
I506
tp29
a(I-10
I460
tp30
a(I391
I354
tp31
a(I-10
I368
tp32
a(I238
I864
tp33
a(I1010
I276
tp34
a(I-10
I782
tp35
a(I146
I629
tp36
a(I238
I821
tp37
a(I1010
I552
tp38
a(I371
I140
tp39
a(I1010
I46
tp40
a(I-10
I0
tp41
a(I612
I987
tp42
a(I-10
I966
tp43
a(I1010
I138
tp44
a(I241
I393
tp45
a(I1010
I230
tp46
a(I-10
I276
tp47
a(I1010
I966
tp48
a(I1010
I322
tp49
a(I146
I704
tp50
a(I1010
I138
tp51
a(I1010
I414
tp52
a(I-10
I736
tp53
a(I582
I704
tp54
a(I-10
I552
tp55
a(I-10
I828
tp56
a(I1010
I506
tp57
a(I1010
I920
tp58
a(I1010
I644
tp59
a(I1010
I598
tp60
a(I1010
I598
tp61
a(I-10
I0
tp62
a(I1010
I460
tp63
a(I-10
I736
tp64
a(I1010
I828
tp65
a(I242
I511
tp66
a(I1010
I368
tp67
a(I-10
I368
tp68
a(I1010
I460
tp69
a(I-10
I46
tp70
a(I1010
I598
tp71
a(I1010
I966
tp72
a(I-10
I782
tp73
a(I-10
I828
tp74
a(I1010
I460
tp75
a(I1010
I276
tp76
a(I428
I919
tp77
a(I1010
I0
tp78
a(I-10
I966
tp79
a(I1010
I46
tp80
a(I1010
I736
tp81
a(I1010
I46
tp82
a(I-10
I368
tp83
a(I-10
I414
tp84
a(I241
I334
tp85
a(I-10
I460
tp86
a(I1010
I920
tp87
a(I1010
I276
tp88
a(I-10
I598
tp89
a(I146
I586
tp90
a(I1010
I230
tp91
a(I1010
I690
tp92
a(I-10
I552
tp93
a(I1010
I230
tp94
a(I-10
I46
tp95
a(I1010
I0
tp96
a(I-10
I644
tp97
a(I-10
I138
tp98
a(I918
I609
tp99
a(I-10
I230
tp100
a(I1010
I92
tp101
a(I-10
I828
tp102
a(I-10
I322
tp103
a(I-10
I92
tp104
a(I640
I350
tp105
a(I-10
I414
tp106
a(I1010
I230
tp107
a(I-10
I782
tp108
a(I146
I683
tp109
a(I-10
I506
tp110
a(I918
I467
tp111
a(I242
I448
tp112
a(I-10
I598
tp113
a(I-10
I230
tp114
a(I1010
I690
tp115
a(I-10
I230
tp116
a(I-10
I322
tp117
a(I1010
I966
tp118
a(I-10
I414
tp119
a(I1010
I184
tp120
a(I-10
I414
tp121
a(I1010
I736
tp122
a(I-10
I828
tp123
a(I-10
I690
tp124
a(I1010
I506
tp125
a(I-10
I966
tp126
a(I-10
I92
tp127
a(I-10
I920
tp128
a(I1010
I874
tp129
a(I-10
I46
tp130
a(I-10
I874
tp131
a(I-10
I184
tp132
a(I918
I349
tp133
a(I-10
I0
tp134
a(I1010
I782
tp135
a(I-10
I460
tp136
a(I1010
I46
tp137
a(I1010
I92
tp138
a(I-10
I322
tp139
a(I-10
I184
tp140
a(I1010
I322
tp141
a(I-10
I506
tp142
a(I-10
I138
tp143
a(I1010
I598
tp144
a(I-10
I920
tp145
a(I1010
I874
tp146
a(I918
I628
tp147
a(I1010
I920
tp148
a(I1010
I828
tp149
a(I1010
I0
tp150
a(I1010
I966
tp151
a(I1010
I138
tp152
a(I1010
I92
tp153
a(I918
I565
tp154
a(I-10
I736
tp155
a(I241
I349
tp156
a(I1010
I184
tp157
a(I-10
I736
tp158
a(I1010
I874
tp159
a(I582
I748
tp160
a(I391
I250
tp161
a(I1010
I276
tp162
a(I299
I86
tp163
a(I1010
I368
tp164
a(I146
I565
tp165
a(I299
I18
tp166
a(I-10
I644
tp167
a(I1010
I460
tp168
a(I391
I141
tp169
a(I1010
I184
tp170
a(I1010
I552
tp171
a(I472
I510
tp172
a(I391
I170
tp173
a(I918
I512
tp174
a(I391
I198
tp175
a(I612
I918
tp176
a(I1010
I552
tp177
a(I1010
I0
tp178
a(I146
I747
tp179
a(I-10
I644
tp180
a(I1010
I736
tp181
a(I391
I394
tp182
a(I-10
I184
tp183
a(I1010
I920
tp184
a(I1010
I782
tp185
a(I1010
I414
tp186
a(I-10
I874
tp187
a(I428
I939
tp188
a(I-10
I690
tp189
a(I1010
I552
tp190
a(I-10
I920
tp191
a(I-10
I966
tp192
a(I428
I980
tp193
a(I1010
I414
tp194
a(I1010
I644
tp195
a(I391
I337
tp196
a(I299
I46
tp197
a(I-10
I92
tp198
a(I1010
I782
tp199
a(I-10
I46
tp200
a(I1010
I138
tp201
a(I-10
I782
tp202
a(I612
I961
tp203
a(I-10
I874
tp204
a(I-10
I552
tp205
a(I-10
I598
tp206
a(I-10
I690
tp207
a(I-10
I0
tp208
a(I918
I394
tp209
a(I1010
I506
tp210
a(I472
I469
tp211
a(I-10
I92
tp212
a(I242
I466
tp213
a(I-10
I874
tp214
a(I-10
I138
tp215
a(I-10
I184
tp216
a(I-10
I322
tp217
a(I391
I257
tp218
a(I-10
I644
tp219
a(I-10
I368
tp220
a(I238
I803
tp221
a(I-10
I506
tp222
a(I-10
I690
tp223
a(I-10
I460
tp224
a(I-10
I276
tp225
a(I1010
I322
tp226
a(I-10
I552
tp227
a(I1010
I690
tp228
a(I-10
I230
tp229
a(I918
I337
tp230
a(I391
I282
tp231
a.(lp1
(I832
I-10
tp2
a(I94
I306
tp3
a(I484
I310
tp4
a(I532
I310
tp5
a(I513
I225
tp6
a(I372
I114
tp7
a(I260
I1004
tp8
a(I468
I-10
tp9
a(I208
I-10
tp10
a(I156
I1004
tp11
a(I410
I422
tp12
a(I676
I310
tp13
a(I468
I-10
tp14
a(I673
I776
tp15
a(I884
I-10
tp16
a(I468
I1005
tp17
a(I898
I422
tp18
a(I832
I1005
tp19
a(I572
I-10
tp20
a(I208
I538
tp21
a(I773
I891
tp22
a(I337
I775
tp23
a(I676
I1005
tp24
a(I988
I-10
tp25
a(I52
I1005
tp26
a(I23
I891
tp27
a(I416
I1005
tp28
a(I832
I-10
tp29
a(I470
I114
tp30
a(I676
I1004
tp31
a(I572
I1004
tp32
a(I520
I1005
tp33
a(I59
I114
tp34
a(I780
I1004
tp35
a(I572
I1005
tp36
a(I804
I657
tp37
a(I0
I421
tp38
a(I624
I-10
tp39
a(I99
I775
tp40
a(I884
I1004
tp41
a(I0
I1005
tp42
a(I988
I-10
tp43
a(I708
I657
tp44
a(I988
I1004
tp45
a(I676
I1005
tp46
a(I353
I538
tp47
a(I572
I1005
tp48
a(I208
I1005
tp49
a(I260
I-8
tp50
a(I673
I538
tp51
a(I856
I776
tp52
a(I12
I192
tp53
a(I832
I-10
tp54
a(I136
I306
tp55
a(I183
I421
tp56
a(I208
I-10
tp57
a(I312
I-10
tp58
a(I104
I-8
tp59
a(I760
I538
tp60
a(I702
I114
tp61
a(I260
I-10
tp62
a(I243
I775
tp63
a(I676
I-10
tp64
a(I887
I422
tp65
a(I520
I1005
tp66
a(I421
I114
tp67
a(I52
I-10
tp68
a(I312
I1005
tp69
a(I811
I776
tp70
a(I716
I538
tp71
a(I728
I-10
tp72
a(I429
I775
tp73
a(I40
I421
tp74
a(I624
I-10
tp75
a(I291
I775
tp76
a(I147
I114
tp77
a(I304
I538
tp78
a(I52
I1005
tp79
a(I43
I306
tp80
a(I189
I114
tp81
a(I208
I-10
tp82
a(I676
I1005
tp83
a(I839
I114
tp84
a(I430
I422
tp85
a(I568
I657
tp86
a(I312
I1004
tp87
a(I156
I-8
tp88
a(I840
I422
tp89
a(I988
I1005
tp90
a(I595
I538
tp91
a(I520
I-10
tp92
a(I238
I114
tp93
a(I898
I310
tp94
a(I141
I192
tp95
a(I888
I230
tp96
a(I240
I192
tp97
a(I792
I114
tp98
a(I617
I657
tp99
a(I52
I-10
tp100
a(I728
I1005
tp101
a(I676
I-8
tp102
a(I936
I-10
tp103
a(I520
I-10
tp104
a(I448
I892
tp105
a(I866
I310
tp106
a(I780
I-8
tp107
a(I364
I-10
tp108
a(I75
I538
tp109
a(I412
I310
tp110
a(I971
I776
tp111
a(I884
I-8
tp112
a(I624
I1005
tp113
a(I104
I-10
tp114
a(I988
I-8
tp115
a(I988
I-10
tp116
a(I468
I1004
tp117
a(I83
I421
tp118
a(I522
I657
tp119
a(I931
I114
tp120
a(I113
I538
tp121
a(I416
I1004
tp122
a(I728
I891
tp123
a(I45
I192
tp124
a(I624
I1005
tp125
a(I200
I775
tp126
a(I416
I1005
tp127
a(I312
I-10
tp128
a(I260
I1005
tp129
a(I928
I657
tp130
a(I572
I-10
tp131
a(I52
I-8
tp132
a(I160
I538
tp133
a(I104
I-10
tp134
a(I379
I775
tp135
a(I364
I1005
tp136
a(I658
I225
tp137
a(I578
I310
tp138
a(I416
I-10
tp139
a(I0
I775
tp140
a(I5
I306
tp141
a(I0
I-10
tp142
a(I312
I1005
tp143
a(I464
I225
tp144
a(I478
I657
tp145
a(I497
I892
tp146
a(I237
I657
tp147
a(I468
I1005
tp148
a(I780
I-10
tp149
a(I217
I891
tp150
a(I521
I775
tp151
a(I520
I-10
tp152
a(I884
I-10
tp153
a(I884
I1005
tp154
a(I364
I-10
tp155
a(I625
I538
tp156
a(I260
I1005
tp157
a(I936
I-10
tp158
a(I406
I892
tp159
a(I364
I1004
tp160
a(I771
I310
tp161
a(I312
I-10
tp162
a(I792
I422
tp163
a(I808
I538
tp164
a(I156
I1005
tp165
a(I676
I-10
tp166
a(I416
I-10
tp167
a(I333
I657
tp168
a(I208
I1004
tp169
a(I832
I1005
tp170
a(I546
I538
tp171
a(I364
I1005
tp172
a(I330
I114
tp173
a(I285
I657
tp174
a(I624
I1004
tp175
a(I592
I892
tp176
a(I166
I657
tp177
a(I104
I1005
tp178
a(I17
I114
tp179
a(I728
I1004
tp180
a(I780
I1005
tp181
a(I545
I892
tp182
a(I429
I657
tp183
a(I611
I114
tp184
a(I832
I1004
tp185
a(I468
I-10
tp186
a(I934
I230
tp187
a(I208
I1005
tp188
a(I936
I1004
tp189
a(I980
I114
tp190
a(I562
I225
tp191
a(I520
I-8
tp192
a(I988
I1005
tp193
a(I603
I775
tp194
a(I189
I192
tp195
a(I231
I306
tp196
a(I416
I-8
tp197
a(I748
I114
tp198
a(I898
I538
tp199
a(I676
I-10
tp200
a(I208
I1005
tp201
a(I434
I310
tp202
a(I50
I775
tp203
a(I342
I192
tp204
a(I92
I192
tp205
a(I123
I891
tp206
a(I572
I-8
tp207
a(I978
I230
tp208
a(I260
I-10
tp209
a(I104
I1005
tp210
a(I757
I657
tp211
a(I517
I114
tp212
a(I460
I422
tp213
a(I401
I538
tp214
a(I520
I1004
tp215
a(I719
I776
tp216
a(I601
I422
tp217
a(I705
I225
tp218
a(I572
I-10
tp219
a(I728
I1005
tp220
a(I468
I1005
tp221
a(I853
I538
tp222
a(I847
I657
tp223
a(I748
I422
tp224
a(I656
I114
tp225
a(I168
I891
tp226
a(I728
I1005
tp227
a(I939
I776
tp228
a(I286
I114
tp229
a(I559
I775
tp230
a(I728
I-10
tp231
a(I780
I-10
tp232
a(I52
I1005
tp233
a(I832
I1005
tp234
a(I819
I310
tp235
a(I896
I776
tp236
a(I723
I310
tp237
a(I698
I422
tp238
a(I884
I-10
tp239
a(I0
I1004
tp240
a(I625
I776
tp241
a(I382
I657
tp242
a(I104
I1004
tp243
a(I255
I538
tp244
a(I936
I-10
tp245
a(I104
I1005
tp246
a(I413
I225
tp247
a(I156
I1005
tp248
a(I312
I-8
tp249
a(I649
I422
tp250
a(I416
I1005
tp251
a(I156
I1005
tp252
a(I156
I-10
tp253
a(I208
I-8
tp254
a(I563
I114
tp255
a(I624
I-8
tp256
a(I150
I775
tp257
a(I156
I-10
tp258
a(I764
I776
tp259
a(I936
I1005
tp260
a(I624
I-10
tp261
a(I728
I-8
tp262
a(I557
I422
tp263
a(I364
I-10
tp264
a(I312
I1005
tp265
a(I610
I225
tp266
a(I832
I-8
tp267
a(I260
I-10
tp268
a(I193
I657
tp269
a(I780
I1005
tp270
a(I936
I-8
tp271
a(I0
I-10
tp272
a(I881
I657
tp273
a(I0
I-10
tp274
a(I133
I421
tp275
a(I292
I192
tp276
a(I780
I1005
tp277
a(I187
I306
tp278
a(I474
I775
tp279
a(I627
I310
tp280
a(I884
I1005
tp281
a(I221
I421
tp282
a(I660
I657
tp283
a(I451
I538
tp284
a(I260
I1005
tp285
a(I416
I-10
tp286
a(I624
I1005
tp287
a(I988
I1005
tp288
a(I104
I-10
tp289
a(I103
I114
tp290
a(I364
I-8
tp291
a(I364
I1005
tp292
a(I0
I-8
tp293
a(I626
I892
tp294
a(I520
I1005
tp295
a(I156
I-10
tp296
a(I976
I657
tp297
a(I468
I-8
tp298
a(I497
I538
tp299
a(I0
I1005
tp300
a(I572
I1005
tp301
a(I936
I1005
tp302
a(I884
I1005
tp303
a(I883
I114
tp304
a(I509
I422
tp305
a(I728
I-10
tp306
a(I780
I-10
tp307
a(I52
I1004
tp308
a(I936
I1005
tp309
a(I52
I-10
tp310
a(I72
I891
tp311
a(I0
I1005
tp312
a.(lp1
(I929
I9
tp2
a(I324
I671
tp3
a(I176
I436
tp4
a(I635
I904
tp5
a(I507
I11
tp6
a(I395
I902
tp7
a(I757
I323
tp8
a(I125
I128
tp9
a(I392
I437
tp10
a(I127
I321
tp11
a.(lp1
(I444
I619
tp2
a(I697
I970
tp3
a(I955
I614
tp4
a(I982
I621
tp5
a(I650
I745
tp6
a(I608
I75
tp7
a(I459
I389
tp8
a(I170
I75
tp9
a(I82
I741
tp10
a(I339
I503
tp11
a(I937
I615
tp12
a(I685
I745
tp13
a(I461
I968
tp14
a(I502
I69
tp15
a(I596
I502
tp16
a.(lp1
(I209
I588
tp2
a(I40
I121
tp3
a(I83
I469
tp4
a(I724
I824
tp5
a(I519
I470
tp6
a(I707
I155
tp7
a(I455
I155
tp8
a(I875
I703
tp9
a(I975
I279
tp10
a(I202
I821
tp11
a(I185
I355
tp12
a(I770
I935
tp13
a(I881
I162
tp14
a(I341
I125
tp15
a(I527
I937
tp16
a(I669
I354
tp17
a(I398
I825
tp18
a(I617
I825
tp19
a(I427
I469
tp20
a(I120
I939
tp21
a(I753
I470
tp22
a.(I259
I69
t.S'data/levels\\office.lvl'
p1
.