S'Roof'
p1
.(I1500
I500
tp1
.(I91
I240
tp1
.(lp1
(I743
I19
tp2
a(I-10
I460
tp3
a(I157
I248
tp4
a(I1510
I184
tp5
a(I646
I455
tp6
a(I-10
I184
tp7
a(I-10
I184
tp8
a(I-10
I276
tp9
a(I776
I219
tp10
a(I-10
I46
tp11
a(I645
I211
tp12
a(I776
I187
tp13
a(I1510
I0
tp14
a(I-10
I414
tp15
a(I1510
I460
tp16
a(I-10
I0
tp17
a(I1510
I368
tp18
a(I1510
I92
tp19
a(I1510
I368
tp20
a(I1510
I138
tp21
a(I1510
I460
tp22
a(I-10
I460
tp23
a(I-10
I46
tp24
a(I-10
I368
tp25
a(I645
I315
tp26
a(I1510
I230
tp27
a(I-10
I0
tp28
a(I776
I299
tp29
a(I1510
I92
tp30
a(I-10
I0
tp31
a(I645
I248
tp32
a(I1510
I138
tp33
a(I1510
I184
tp34
a(I1510
I230
tp35
a(I-10
I322
tp36
a(I1510
I46
tp37
a(I1510
I138
tp38
a(I-10
I368
tp39
a(I1510
I184
tp40
a(I-10
I460
tp41
a(I1510
I414
tp42
a(I-10
I92
tp43
a(I-10
I368
tp44
a(I-10
I230
tp45
a(I-10
I138
tp46
a(I-10
I322
tp47
a(I157
I361
tp48
a(I743
I102
tp49
a(I-10
I92
tp50
a(I-10
I46
tp51
a(I1510
I0
tp52
a(I157
I206
tp53
a(I1510
I368
tp54
a(I1510
I414
tp55
a(I1510
I276
tp56
a(I1510
I460
tp57
a(I646
I486
tp58
a(I1510
I322
tp59
a(I645
I360
tp60
a(I1510
I46
tp61
a(I1510
I414
tp62
a(I157
I332
tp63
a(I-10
I414
tp64
a(I776
I249
tp65
a(I646
I411
tp66
a(I1510
I0
tp67
a(I-10
I230
tp68
a(I-10
I138
tp69
a(I743
I135
tp70
a(I1510
I230
tp71
a(I1510
I276
tp72
a(I-10
I276
tp73
a(I743
I78
tp74
a(I1510
I46
tp75
a(I-10
I92
tp76
a(I-10
I138
tp77
a(I-10
I184
tp78
a(I776
I335
tp79
a(I-10
I230
tp80
a(I-10
I414
tp81
a(I-10
I276
tp82
a(I776
I315
tp83
a(I157
I186
tp84
a(I1510
I276
tp85
a(I776
I359
tp86
a(I157
I300
tp87
a(I1510
I322
tp88
a(I645
I300
tp89
a(I743
I47
tp90
a(I-10
I322
tp91
a(I1510
I92
tp92
a(I645
I186
tp93
a(I1510
I322
tp94
a.(lp1
(I988
I504
tp2
a(I147
I274
tp3
a(I1353
I274
tp4
a(I364
I504
tp5
a(I988
I504
tp6
a(I1384
I384
tp7
a(I156
I-8
tp8
a(I1260
I384
tp9
a(I104
I504
tp10
a(I1456
I-8
tp11
a(I635
I385
tp12
a(I1040
I504
tp13
a(I889
I160
tp14
a(I1404
I-8
tp15
a(I377
I385
tp16
a(I173
I160
tp17
a(I364
I-8
tp18
a(I208
I504
tp19
a(I260
I-8
tp20
a(I260
I-8
tp21
a(I468
I-8
tp22
a(I156
I504
tp23
a(I520
I504
tp24
a(I208
I504
tp25
a(I91
I160
tp26
a(I1392
I274
tp27
a(I1456
I-8
tp28
a(I312
I504
tp29
a(I156
I504
tp30
a(I1338
I384
tp31
a(I947
I274
tp32
a(I1152
I384
tp33
a(I1248
I504
tp34
a(I416
I504
tp35
a(I467
I274
tp36
a(I780
I-8
tp37
a(I626
I274
tp38
a(I756
I160
tp39
a(I487
I160
tp40
a(I520
I504
tp41
a(I884
I-8
tp42
a(I840
I384
tp43
a(I624
I504
tp44
a(I1144
I504
tp45
a(I1314
I274
tp46
a(I1095
I274
tp47
a(I364
I-8
tp48
a(I728
I504
tp49
a(I1340
I160
tp50
a(I780
I-8
tp51
a(I517
I274
tp52
a(I20
I274
tp53
a(I832
I504
tp54
a(I1239
I160
tp55
a(I988
I-8
tp56
a(I750
I385
tp57
a(I936
I504
tp58
a(I121
I274
tp59
a(I1404
I504
tp60
a(I1379
I160
tp61
a(I876
I384
tp62
a(I1097
I384
tp63
a(I1040
I504
tp64
a(I193
I274
tp65
a(I468
I504
tp66
a(I832
I-8
tp67
a(I1456
I504
tp68
a(I1144
I504
tp69
a(I832
I504
tp70
a(I1456
I504
tp71
a(I1248
I504
tp72
a(I44
I160
tp73
a(I156
I-8
tp74
a(I0
I504
tp75
a(I706
I385
tp76
a(I728
I-8
tp77
a(I244
I274
tp78
a(I1248
I-8
tp79
a(I316
I160
tp80
a(I832
I-8
tp81
a(I936
I-8
tp82
a(I52
I-8
tp83
a(I573
I160
tp84
a(I260
I504
tp85
a(I673
I274
tp86
a(I0
I-8
tp87
a(I542
I385
tp88
a(I780
I504
tp89
a(I1144
I504
tp90
a(I1456
I-8
tp91
a(I1288
I160
tp92
a(I104
I504
tp93
a(I1248
I504
tp94
a(I1352
I-8
tp95
a(I208
I-8
tp96
a(I1092
I504
tp97
a(I23
I385
tp98
a(I1211
I160
tp99
a(I1479
I274
tp100
a(I624
I504
tp101
a(I312
I-8
tp102
a(I312
I-8
tp103
a(I416
I-8
tp104
a(I848
I160
tp105
a(I260
I504
tp106
a(I416
I-8
tp107
a(I520
I-8
tp108
a(I1281
I274
tp109
a(I520
I-8
tp110
a(I1300
I384
tp111
a(I0
I-8
tp112
a(I52
I-8
tp113
a(I1427
I160
tp114
a(I624
I-8
tp115
a(I320
I385
tp116
a(I1456
I504
tp117
a(I37
I274
tp118
a(I728
I-8
tp119
a(I416
I-8
tp120
a(I936
I504
tp121
a(I762
I384
tp122
a(I832
I-8
tp123
a(I1404
I-8
tp124
a(I884
I504
tp125
a(I593
I274
tp126
a(I936
I-8
tp127
a(I312
I-8
tp128
a(I1504
I160
tp129
a(I1248
I-8
tp130
a(I1040
I-8
tp131
a(I428
I274
tp132
a(I1144
I-8
tp133
a(I1460
I160
tp134
a(I1040
I504
tp135
a(I606
I160
tp136
a(I1144
I-8
tp137
a(I624
I-8
tp138
a(I572
I504
tp139
a(I416
I504
tp140
a(I806
I160
tp141
a(I1248
I-8
tp142
a(I554
I274
tp143
a(I780
I504
tp144
a(I988
I-8
tp145
a(I1352
I-8
tp146
a(I444
I160
tp147
a(I312
I504
tp148
a(I0
I504
tp149
a(I1479
I384
tp150
a(I676
I385
tp151
a(I1049
I274
tp152
a(I416
I504
tp153
a(I1300
I-8
tp154
a(I218
I160
tp155
a(I520
I504
tp156
a(I676
I504
tp157
a(I936
I504
tp158
a(I1040
I-8
tp159
a(I870
I274
tp160
a(I17
I160
tp161
a(I499
I385
tp162
a(I572
I504
tp163
a(I312
I504
tp164
a(I208
I-8
tp165
a(I1134
I160
tp166
a(I912
I274
tp167
a(I52
I504
tp168
a(I407
I160
tp169
a(I335
I385
tp170
a(I572
I-8
tp171
a(I387
I274
tp172
a(I1001
I384
tp173
a(I468
I-8
tp174
a(I260
I504
tp175
a(I1001
I274
tp176
a(I965
I160
tp177
a(I1196
I504
tp178
a(I208
I504
tp179
a(I364
I504
tp180
a(I1300
I504
tp181
a(I1056
I160
tp182
a(I468
I504
tp183
a(I624
I-8
tp184
a(I1233
I384
tp185
a(I572
I504
tp186
a(I676
I504
tp187
a(I768
I274
tp188
a(I1196
I504
tp189
a(I156
I-8
tp190
a(I659
I160
tp191
a(I706
I274
tp192
a(I780
I504
tp193
a(I1300
I504
tp194
a(I1047
I384
tp195
a(I979
I274
tp196
a(I708
I160
tp197
a(I884
I504
tp198
a(I1212
I274
tp199
a(I1092
I-8
tp200
a(I52
I-8
tp201
a(I1179
I274
tp202
a(I208
I-8
tp203
a(I988
I504
tp204
a(I922
I160
tp205
a(I364
I504
tp206
a(I1352
I504
tp207
a(I1092
I504
tp208
a(I52
I504
tp209
a(I1352
I504
tp210
a(I676
I-8
tp211
a(I1196
I504
tp212
a(I1092
I504
tp213
a(I676
I504
tp214
a(I1142
I384
tp215
a(I1040
I-8
tp216
a(I1175
I160
tp217
a(I1300
I504
tp218
a(I104
I-8
tp219
a(I912
I384
tp220
a(I1196
I-8
tp221
a(I1202
I384
tp222
a(I1404
I504
tp223
a(I1245
I274
tp224
a(I936
I-8
tp225
a(I1300
I-8
tp226
a(I468
I504
tp227
a(I520
I-8
tp228
a(I1352
I-8
tp229
a(I1144
I274
tp230
a(I278
I385
tp231
a(I52
I504
tp232
a(I1422
I384
tp233
a(I1144
I-8
tp234
a(I1094
I160
tp235
a(I624
I504
tp236
a(I728
I504
tp237
a(I104
I504
tp238
a(I1432
I274
tp239
a(I129
I160
tp240
a(I187
I385
tp241
a(I532
I160
tp242
a(I961
I384
tp243
a(I572
I-8
tp244
a(I1452
I384
tp245
a(I138
I385
tp246
a(I589
I385
tp247
a(I1404
I-8
tp248
a(I820
I274
tp249
a(I884
I504
tp250
a(I364
I-8
tp251
a(I676
I-8
tp252
a(I229
I385
tp253
a(I468
I-8
tp254
a(I1404
I504
tp255
a(I736
I274
tp256
a(I572
I-8
tp257
a(I339
I274
tp258
a(I676
I-8
tp259
a(I832
I504
tp260
a(I267
I160
tp261
a(I0
I504
tp262
a(I260
I-8
tp263
a(I780
I-8
tp264
a(I884
I-8
tp265
a(I290
I274
tp266
a(I93
I385
tp267
a(I361
I160
tp268
a(I884
I-8
tp269
a(I808
I384
tp270
a(I1352
I504
tp271
a(I104
I-8
tp272
a(I988
I-8
tp273
a(I1196
I-8
tp274
a(I728
I-8
tp275
a(I1092
I-8
tp276
a(I728
I504
tp277
a(I467
I385
tp278
a(I0
I-8
tp279
a(I84
I274
tp280
a(I1196
I-8
tp281
a(I422
I385
tp282
a(I1092
I-8
tp283
a(I104
I-8
tp284
a(I627
I160
tp285
a(I1300
I-8
tp286
a(I54
I385
tp287
a(I156
I504
tp288
a(I1015
I160
tp289
a.(lp1
.(lp1
(I529
I338
tp2
a(I1262
I338
tp3
a(I127
I462
tp4
a(I1346
I444
tp5
a(I264
I346
tp6
a(I247
I465
tp7
a(I1097
I460
tp8
a(I1384
I114
tp9
a(I1354
I224
tp10
a(I484
I464
tp11
a(I45
I346
tp12
a(I518
I232
tp13
a(I1108
I342
tp14
a(I1164
I223
tp15
a(I1412
I335
tp16
a(I282
I232
tp17
a(I394
I237
tp18
a(I792
I455
tp19
a(I882
I230
tp20
a(I408
I342
tp21
a(I1222
I114
tp22
a(I1024
I224
tp23
a(I940
I458
tp24
a(I381
I464
tp25
a(I1427
I447
tp26
a(I904
I110
tp27
a(I1219
I452
tp28
a(I1075
I110
tp29
a(I882
I341
tp30
a(I992
I340
tp31
a.(lp1
(I23
I435
tp2
a(I678
I207
tp3
a(I-77
I-14
tp4
a(I266
I209
tp5
a(I1469
I202
tp6
a(I752
I318
tp7
a(I135
I320
tp8
a(I677
I432
tp9
a(I1461
I432
tp10
a(I826
I318
tp11
a(I519
I436
tp12
a(I190
I321
tp13
a.(I786
I123
t.