S'Roof'
p1
.(I1500
I500
tp1
.(I91
I240
tp1
.(lp1
(I-10
I0
tp2
a(I1510
I0
tp3
a(I1510
I138
tp4
a(I157
I186
tp5
a(I1510
I276
tp6
a(I-10
I184
tp7
a(I1510
I46
tp8
a(I-10
I0
tp9
a(I157
I361
tp10
a(I776
I335
tp11
a(I-10
I46
tp12
a(I1510
I460
tp13
a(I1510
I414
tp14
a(I-10
I230
tp15
a(I1510
I46
tp16
a(I-10
I0
tp17
a(I-10
I322
tp18
a(I1510
I460
tp19
a(I-10
I414
tp20
a(I-10
I92
tp21
a(I-10
I276
tp22
a(I1510
I138
tp23
a(I-10
I368
tp24
a(I-10
I184
tp25
a(I-10
I138
tp26
a(I1510
I138
tp27
a(I1510
I368
tp28
a(I-10
I460
tp29
a(I1510
I184
tp30
a(I1510
I92
tp31
a(I776
I219
tp32
a(I1510
I276
tp33
a(I645
I248
tp34
a(I645
I186
tp35
a(I-10
I46
tp36
a(I-10
I460
tp37
a(I-10
I46
tp38
a(I1510
I230
tp39
a(I-10
I184
tp40
a(I1510
I184
tp41
a(I-10
I92
tp42
a(I1510
I0
tp43
a(I645
I211
tp44
a(I-10
I322
tp45
a(I1510
I46
tp46
a(I1510
I322
tp47
a(I1510
I184
tp48
a(I-10
I322
tp49
a(I1510
I276
tp50
a(I-10
I414
tp51
a(I776
I359
tp52
a(I1510
I368
tp53
a(I645
I315
tp54
a(I1510
I460
tp55
a(I646
I411
tp56
a(I-10
I184
tp57
a(I743
I78
tp58
a(I-10
I138
tp59
a(I645
I360
tp60
a(I-10
I368
tp61
a(I-10
I276
tp62
a(I-10
I138
tp63
a(I1510
I368
tp64
a(I-10
I138
tp65
a(I776
I299
tp66
a(I1510
I460
tp67
a(I157
I206
tp68
a(I-10
I368
tp69
a(I-10
I322
tp70
a(I1510
I0
tp71
a(I157
I248
tp72
a(I-10
I230
tp73
a(I646
I486
tp74
a(I1510
I322
tp75
a(I-10
I138
tp76
a(I1510
I414
tp77
a(I1510
I230
tp78
a(I-10
I414
tp79
a(I1510
I0
tp80
a(I-10
I92
tp81
a(I776
I315
tp82
a(I-10
I322
tp83
a(I-10
I276
tp84
a(I-10
I230
tp85
a(I-10
I184
tp86
a(I-10
I368
tp87
a(I-10
I276
tp88
a(I-10
I460
tp89
a(I1510
I184
tp90
a(I1510
I138
tp91
a(I1510
I414
tp92
a(I1510
I46
tp93
a(I1510
I230
tp94
a(I-10
I92
tp95
a(I1510
I46
tp96
a(I743
I47
tp97
a(I-10
I230
tp98
a(I1510
I92
tp99
a(I1510
I0
tp100
a(I-10
I414
tp101
a(I1510
I322
tp102
a(I645
I300
tp103
a(I-10
I46
tp104
a(I743
I19
tp105
a(I-10
I460
tp106
a(I1510
I92
tp107
a(I1510
I368
tp108
a(I157
I332
tp109
a(I1510
I92
tp110
a(I646
I455
tp111
a(I-10
I230
tp112
a(I-10
I46
tp113
a(I-10
I368
tp114
a(I1510
I276
tp115
a(I157
I300
tp116
a(I1510
I230
tp117
a(I-10
I0
tp118
a(I1510
I322
tp119
a(I1510
I184
tp120
a(I1510
I414
tp121
a(I1510
I414
tp122
a(I-10
I0
tp123
a(I743
I135
tp124
a(I1510
I460
tp125
a(I-10
I92
tp126
a(I776
I249
tp127
a(I1510
I368
tp128
a(I-10
I276
tp129
a(I1510
I322
tp130
a(I-10
I460
tp131
a(I743
I102
tp132
a(I776
I187
tp133
a(I1510
I230
tp134
a(I1510
I138
tp135
a(I-10
I414
tp136
a(I1510
I92
tp137
a(I1510
I276
tp138
a.(lp1
(I1144
I504
tp2
a(I1384
I384
tp3
a(I156
I504
tp4
a(I104
I-8
tp5
a(I572
I-8
tp6
a(I922
I160
tp7
a(I267
I160
tp8
a(I218
I160
tp9
a(I1040
I504
tp10
a(I1300
I-8
tp11
a(I1352
I-8
tp12
a(I780
I-8
tp13
a(I312
I504
tp14
a(I1175
I160
tp15
a(I1352
I504
tp16
a(I1404
I-8
tp17
a(I876
I384
tp18
a(I780
I-8
tp19
a(I312
I-8
tp20
a(I1094
I160
tp21
a(I1456
I-8
tp22
a(I260
I504
tp23
a(I260
I504
tp24
a(I361
I160
tp25
a(I1092
I504
tp26
a(I1300
I504
tp27
a(I1097
I384
tp28
a(I676
I-8
tp29
a(I1248
I504
tp30
a(I208
I504
tp31
a(I780
I-8
tp32
a(I979
I274
tp33
a(I889
I160
tp34
a(I520
I504
tp35
a(I1040
I504
tp36
a(I104
I504
tp37
a(I870
I274
tp38
a(I1404
I504
tp39
a(I988
I504
tp40
a(I988
I504
tp41
a(I1248
I504
tp42
a(I1452
I384
tp43
a(I1248
I-8
tp44
a(I840
I384
tp45
a(I728
I-8
tp46
a(I208
I504
tp47
a(I806
I160
tp48
a(I312
I504
tp49
a(I1144
I504
tp50
a(I0
I504
tp51
a(I1300
I504
tp52
a(I468
I-8
tp53
a(I624
I-8
tp54
a(I104
I504
tp55
a(I1212
I274
tp56
a(I377
I385
tp57
a(I936
I-8
tp58
a(I572
I504
tp59
a(I1196
I-8
tp60
a(I1404
I504
tp61
a(I1144
I-8
tp62
a(I1196
I504
tp63
a(I468
I504
tp64
a(I121
I274
tp65
a(I467
I274
tp66
a(I1314
I274
tp67
a(I728
I504
tp68
a(I1144
I-8
tp69
a(I676
I504
tp70
a(I416
I504
tp71
a(I936
I504
tp72
a(I1404
I-8
tp73
a(I1352
I-8
tp74
a(I573
I160
tp75
a(I260
I-8
tp76
a(I1245
I274
tp77
a(I635
I385
tp78
a(I468
I504
tp79
a(I572
I504
tp80
a(I312
I-8
tp81
a(I520
I-8
tp82
a(I728
I-8
tp83
a(I572
I504
tp84
a(I52
I-8
tp85
a(I1040
I504
tp86
a(I965
I160
tp87
a(I84
I274
tp88
a(I1456
I504
tp89
a(I0
I504
tp90
a(I104
I504
tp91
a(I1092
I-8
tp92
a(I1300
I504
tp93
a(I1504
I160
tp94
a(I676
I504
tp95
a(I988
I504
tp96
a(I260
I-8
tp97
a(I1092
I504
tp98
a(I1248
I-8
tp99
a(I0
I-8
tp100
a(I1392
I274
tp101
a(I706
I274
tp102
a(I624
I504
tp103
a(I1211
I160
tp104
a(I832
I504
tp105
a(I407
I160
tp106
a(I260
I504
tp107
a(I156
I504
tp108
a(I364
I504
tp109
a(I961
I384
tp110
a(I312
I504
tp111
a(I520
I-8
tp112
a(I104
I-8
tp113
a(I156
I-8
tp114
a(I936
I504
tp115
a(I1134
I160
tp116
a(I1092
I504
tp117
a(I487
I160
tp118
a(I467
I385
tp119
a(I520
I-8
tp120
a(I832
I-8
tp121
a(I520
I-8
tp122
a(I848
I160
tp123
a(I364
I-8
tp124
a(I138
I385
tp125
a(I1300
I384
tp126
a(I260
I-8
tp127
a(I936
I504
tp128
a(I52
I-8
tp129
a(I676
I-8
tp130
a(I1352
I504
tp131
a(I572
I504
tp132
a(I762
I384
tp133
a(I1196
I504
tp134
a(I1144
I504
tp135
a(I808
I384
tp136
a(I627
I160
tp137
a(I728
I504
tp138
a(I673
I274
tp139
a(I1144
I504
tp140
a(I1288
I160
tp141
a(I1144
I-8
tp142
a(I728
I504
tp143
a(I416
I-8
tp144
a(I416
I-8
tp145
a(I1144
I-8
tp146
a(I416
I504
tp147
a(I1092
I504
tp148
a(I1352
I504
tp149
a(I104
I-8
tp150
a(I444
I160
tp151
a(I780
I504
tp152
a(I0
I504
tp153
a(I1248
I-8
tp154
a(I208
I-8
tp155
a(I312
I504
tp156
a(I1040
I-8
tp157
a(I1300
I-8
tp158
a(I1092
I-8
tp159
a(I572
I-8
tp160
a(I52
I504
tp161
a(I884
I504
tp162
a(I208
I504
tp163
a(I572
I-8
tp164
a(I422
I385
tp165
a(I1427
I160
tp166
a(I1422
I384
tp167
a(I676
I504
tp168
a(I1300
I504
tp169
a(I416
I-8
tp170
a(I1092
I504
tp171
a(I1479
I384
tp172
a(I1456
I-8
tp173
a(I1196
I504
tp174
a(I1456
I504
tp175
a(I335
I385
tp176
a(I884
I-8
tp177
a(I520
I-8
tp178
a(I208
I-8
tp179
a(I884
I-8
tp180
a(I208
I504
tp181
a(I173
I160
tp182
a(I1379
I160
tp183
a(I428
I274
tp184
a(I1352
I-8
tp185
a(I312
I-8
tp186
a(I208
I-8
tp187
a(I156
I-8
tp188
a(I93
I385
tp189
a(I208
I-8
tp190
a(I1404
I504
tp191
a(I52
I-8
tp192
a(I208
I504
tp193
a(I988
I-8
tp194
a(I624
I-8
tp195
a(I52
I504
tp196
a(I1142
I384
tp197
a(I320
I385
tp198
a(I147
I274
tp199
a(I17
I160
tp200
a(I520
I504
tp201
a(I104
I-8
tp202
a(I312
I-8
tp203
a(I1144
I504
tp204
a(I572
I-8
tp205
a(I728
I-8
tp206
a(I1040
I-8
tp207
a(I780
I504
tp208
a(I260
I-8
tp209
a(I1015
I160
tp210
a(I312
I504
tp211
a(I1040
I-8
tp212
a(I468
I-8
tp213
a(I936
I-8
tp214
a(I728
I504
tp215
a(I37
I274
tp216
a(I1152
I384
tp217
a(I1456
I504
tp218
a(I156
I504
tp219
a(I1460
I160
tp220
a(I676
I504
tp221
a(I1248
I504
tp222
a(I387
I274
tp223
a(I468
I504
tp224
a(I156
I-8
tp225
a(I0
I-8
tp226
a(I316
I160
tp227
a(I912
I384
tp228
a(I820
I274
tp229
a(I832
I-8
tp230
a(I339
I274
tp231
a(I1479
I274
tp232
a(I129
I160
tp233
a(I780
I-8
tp234
a(I780
I504
tp235
a(I208
I-8
tp236
a(I1092
I-8
tp237
a(I520
I504
tp238
a(I832
I504
tp239
a(I1144
I274
tp240
a(I884
I-8
tp241
a(I312
I-8
tp242
a(I1196
I-8
tp243
a(I1404
I504
tp244
a(I20
I274
tp245
a(I1456
I-8
tp246
a(I572
I-8
tp247
a(I936
I-8
tp248
a(I0
I-8
tp249
a(I52
I504
tp250
a(I104
I504
tp251
a(I1456
I504
tp252
a(I780
I504
tp253
a(I884
I504
tp254
a(I626
I274
tp255
a(I1456
I504
tp256
a(I780
I-8
tp257
a(I54
I385
tp258
a(I947
I274
tp259
a(I52
I-8
tp260
a(I832
I-8
tp261
a(I244
I274
tp262
a(I554
I274
tp263
a(I0
I504
tp264
a(I364
I-8
tp265
a(I187
I385
tp266
a(I706
I385
tp267
a(I1352
I-8
tp268
a(I1456
I-8
tp269
a(I364
I-8
tp270
a(I593
I274
tp271
a(I936
I-8
tp272
a(I1404
I-8
tp273
a(I988
I-8
tp274
a(I728
I-8
tp275
a(I624
I504
tp276
a(I1338
I384
tp277
a(I1281
I274
tp278
a(I104
I-8
tp279
a(I884
I-8
tp280
a(I52
I-8
tp281
a(I756
I160
tp282
a(I1040
I-8
tp283
a(I1404
I-8
tp284
a(I229
I385
tp285
a(I832
I-8
tp286
a(I1352
I504
tp287
a(I1040
I504
tp288
a(I260
I-8
tp289
a(I912
I274
tp290
a(I832
I504
tp291
a(I1340
I160
tp292
a(I260
I504
tp293
a(I1001
I384
tp294
a(I364
I504
tp295
a(I780
I504
tp296
a(I606
I160
tp297
a(I572
I504
tp298
a(I278
I385
tp299
a(I1404
I-8
tp300
a(I728
I-8
tp301
a(I520
I504
tp302
a(I988
I-8
tp303
a(I1300
I-8
tp304
a(I52
I504
tp305
a(I1001
I274
tp306
a(I750
I385
tp307
a(I768
I274
tp308
a(I676
I-8
tp309
a(I520
I504
tp310
a(I91
I160
tp311
a(I1196
I-8
tp312
a(I156
I-8
tp313
a(I736
I274
tp314
a(I832
I504
tp315
a(I884
I-8
tp316
a(I659
I160
tp317
a(I468
I-8
tp318
a(I1239
I160
tp319
a(I290
I274
tp320
a(I542
I385
tp321
a(I468
I-8
tp322
a(I364
I504
tp323
a(I156
I-8
tp324
a(I1196
I504
tp325
a(I624
I-8
tp326
a(I1248
I-8
tp327
a(I832
I-8
tp328
a(I1196
I504
tp329
a(I728
I504
tp330
a(I1260
I384
tp331
a(I884
I504
tp332
a(I364
I504
tp333
a(I1353
I274
tp334
a(I1047
I384
tp335
a(I416
I504
tp336
a(I468
I-8
tp337
a(I23
I385
tp338
a(I416
I504
tp339
a(I1352
I-8
tp340
a(I156
I504
tp341
a(I1040
I504
tp342
a(I1040
I-8
tp343
a(I517
I274
tp344
a(I1248
I504
tp345
a(I1248
I-8
tp346
a(I0
I504
tp347
a(I624
I504
tp348
a(I1456
I-8
tp349
a(I193
I274
tp350
a(I416
I-8
tp351
a(I708
I160
tp352
a(I0
I-8
tp353
a(I416
I504
tp354
a(I884
I504
tp355
a(I364
I-8
tp356
a(I260
I504
tp357
a(I52
I504
tp358
a(I624
I-8
tp359
a(I416
I-8
tp360
a(I589
I385
tp361
a(I468
I504
tp362
a(I0
I-8
tp363
a(I988
I-8
tp364
a(I936
I504
tp365
a(I624
I504
tp366
a(I1248
I504
tp367
a(I44
I160
tp368
a(I1300
I-8
tp369
a(I1092
I-8
tp370
a(I676
I-8
tp371
a(I1352
I504
tp372
a(I1300
I-8
tp373
a(I936
I-8
tp374
a(I104
I504
tp375
a(I988
I504
tp376
a(I988
I-8
tp377
a(I1404
I504
tp378
a(I1056
I160
tp379
a(I832
I504
tp380
a(I1202
I384
tp381
a(I156
I504
tp382
a(I1196
I-8
tp383
a(I1095
I274
tp384
a(I676
I-8
tp385
a(I468
I504
tp386
a(I624
I504
tp387
a(I1179
I274
tp388
a(I1144
I-8
tp389
a(I884
I504
tp390
a(I364
I504
tp391
a(I1300
I504
tp392
a(I532
I160
tp393
a(I936
I504
tp394
a(I1049
I274
tp395
a(I1233
I384
tp396
a(I364
I-8
tp397
a(I499
I385
tp398
a(I1092
I-8
tp399
a(I1432
I274
tp400
a(I988
I504
tp401
a(I676
I504
tp402
a(I676
I385
tp403
a(I1196
I-8
tp404
a(I624
I-8
tp405
a.(lp1
.(lp1
(I109
I119
tp2
a(I1108
I342
tp3
a(I381
I464
tp4
a(I590
I116
tp5
a(I430
I112
tp6
a(I1164
I223
tp7
a(I518
I232
tp8
a(I45
I346
tp9
a(I1097
I460
tp10
a(I1427
I447
tp11
a(I282
I232
tp12
a(I882
I341
tp13
a(I1346
I444
tp14
a(I1075
I110
tp15
a(I1024
I224
tp16
a(I394
I237
tp17
a(I529
I338
tp18
a(I882
I230
tp19
a(I127
I462
tp20
a(I992
I340
tp21
a(I940
I458
tp22
a(I1222
I114
tp23
a(I792
I455
tp24
a(I264
I346
tp25
a(I1354
I224
tp26
a(I247
I465
tp27
a(I1219
I452
tp28
a(I1262
I338
tp29
a(I256
I115
tp30
a(I408
I342
tp31
a(I1384
I114
tp32
a(I904
I110
tp33
a(I484
I464
tp34
a(I1412
I335
tp35
a.(lp1
(I752
I318
tp2
a(I-77
I-14
tp3
a(I135
I320
tp4
a(I677
I432
tp5
a(I1461
I432
tp6
a(I826
I318
tp7
a(I519
I436
tp8
a(I190
I321
tp9
a(I678
I207
tp10
a(I266
I209
tp11
a(I23
I435
tp12
a(I1469
I202
tp13
a.(I764
I132
t.S'data/levels\\roof.lvl'
p1
.