S'Roof'
p1
.(I1500
I500
tp1
.(I91
I240
tp1
.(lp1
(I-10
I276
tp2
a(I-10
I0
tp3
a(I1510
I138
tp4
a(I-10
I184
tp5
a(I-10
I368
tp6
a(I1510
I460
tp7
a(I1510
I46
tp8
a(I-10
I138
tp9
a(I1510
I138
tp10
a(I776
I249
tp11
a(I1510
I46
tp12
a(I-10
I138
tp13
a(I-10
I460
tp14
a(I-10
I276
tp15
a(I-10
I230
tp16
a(I-10
I138
tp17
a(I776
I219
tp18
a(I743
I102
tp19
a(I-10
I414
tp20
a(I157
I206
tp21
a(I1510
I276
tp22
a(I776
I187
tp23
a(I645
I300
tp24
a(I-10
I368
tp25
a(I645
I186
tp26
a(I1510
I138
tp27
a(I-10
I460
tp28
a(I157
I248
tp29
a(I-10
I46
tp30
a(I1510
I92
tp31
a(I1510
I368
tp32
a(I646
I486
tp33
a(I-10
I46
tp34
a(I-10
I0
tp35
a(I1510
I230
tp36
a(I-10
I0
tp37
a(I645
I248
tp38
a(I-10
I414
tp39
a(I-10
I322
tp40
a(I-10
I230
tp41
a(I1510
I184
tp42
a(I1510
I276
tp43
a(I-10
I368
tp44
a(I-10
I92
tp45
a(I645
I211
tp46
a(I157
I361
tp47
a(I-10
I230
tp48
a(I1510
I0
tp49
a(I157
I186
tp50
a(I1510
I460
tp51
a(I1510
I276
tp52
a(I1510
I322
tp53
a(I1510
I92
tp54
a(I645
I360
tp55
a(I1510
I414
tp56
a(I-10
I460
tp57
a(I1510
I0
tp58
a(I776
I299
tp59
a(I-10
I414
tp60
a(I1510
I92
tp61
a(I-10
I230
tp62
a(I-10
I460
tp63
a(I1510
I276
tp64
a(I1510
I230
tp65
a(I1510
I322
tp66
a(I-10
I46
tp67
a(I-10
I0
tp68
a(I157
I332
tp69
a(I-10
I138
tp70
a(I1510
I230
tp71
a(I1510
I0
tp72
a(I-10
I368
tp73
a(I1510
I230
tp74
a(I-10
I92
tp75
a(I1510
I46
tp76
a(I646
I455
tp77
a(I-10
I414
tp78
a(I-10
I322
tp79
a(I776
I335
tp80
a(I-10
I46
tp81
a(I776
I315
tp82
a(I1510
I322
tp83
a(I1510
I414
tp84
a(I157
I300
tp85
a(I-10
I322
tp86
a(I-10
I322
tp87
a(I1510
I46
tp88
a(I743
I19
tp89
a(I-10
I184
tp90
a(I776
I359
tp91
a(I1510
I460
tp92
a(I1510
I184
tp93
a(I-10
I276
tp94
a(I645
I315
tp95
a(I-10
I92
tp96
a(I1510
I414
tp97
a(I1510
I184
tp98
a(I646
I411
tp99
a(I1510
I138
tp100
a(I743
I135
tp101
a(I1510
I414
tp102
a(I743
I78
tp103
a(I-10
I184
tp104
a(I-10
I184
tp105
a(I-10
I92
tp106
a(I-10
I276
tp107
a(I1510
I368
tp108
a(I1510
I368
tp109
a(I743
I47
tp110
a(I1510
I368
tp111
a(I1510
I92
tp112
a(I1510
I322
tp113
a(I1510
I0
tp114
a(I1510
I460
tp115
a(I1510
I184
tp116
a.(lp1
(I1352
I504
tp2
a(I1144
I-8
tp3
a(I589
I385
tp4
a(I468
I-8
tp5
a(I121
I274
tp6
a(I1352
I504
tp7
a(I780
I-8
tp8
a(I52
I504
tp9
a(I156
I-8
tp10
a(I1352
I-8
tp11
a(I208
I-8
tp12
a(I1300
I384
tp13
a(I422
I385
tp14
a(I52
I-8
tp15
a(I936
I-8
tp16
a(I0
I504
tp17
a(I936
I-8
tp18
a(I364
I-8
tp19
a(I1248
I504
tp20
a(I1353
I274
tp21
a(I1352
I-8
tp22
a(I1001
I384
tp23
a(I554
I274
tp24
a(I1092
I-8
tp25
a(I260
I-8
tp26
a(I1404
I504
tp27
a(I884
I504
tp28
a(I1196
I504
tp29
a(I1248
I504
tp30
a(I104
I504
tp31
a(I468
I504
tp32
a(I922
I160
tp33
a(I520
I-8
tp34
a(I676
I504
tp35
a(I936
I-8
tp36
a(I884
I504
tp37
a(I1092
I504
tp38
a(I520
I504
tp39
a(I593
I274
tp40
a(I1196
I-8
tp41
a(I1152
I384
tp42
a(I147
I274
tp43
a(I1300
I504
tp44
a(I104
I-8
tp45
a(I387
I274
tp46
a(I884
I-8
tp47
a(I936
I504
tp48
a(I208
I504
tp49
a(I1456
I-8
tp50
a(I912
I384
tp51
a(I1202
I384
tp52
a(I193
I274
tp53
a(I468
I-8
tp54
a(I229
I385
tp55
a(I1281
I274
tp56
a(I0
I-8
tp57
a(I659
I160
tp58
a(I832
I-8
tp59
a(I884
I-8
tp60
a(I1092
I504
tp61
a(I218
I160
tp62
a(I884
I504
tp63
a(I312
I-8
tp64
a(I988
I504
tp65
a(I1300
I-8
tp66
a(I156
I504
tp67
a(I806
I160
tp68
a(I870
I274
tp69
a(I364
I-8
tp70
a(I312
I-8
tp71
a(I37
I274
tp72
a(I320
I385
tp73
a(I676
I504
tp74
a(I1288
I160
tp75
a(I1092
I504
tp76
a(I1040
I-8
tp77
a(I416
I504
tp78
a(I208
I-8
tp79
a(I1094
I160
tp80
a(I780
I504
tp81
a(I832
I504
tp82
a(I1456
I-8
tp83
a(I736
I274
tp84
a(I1404
I-8
tp85
a(I1338
I384
tp86
a(I936
I-8
tp87
a(I1248
I504
tp88
a(I156
I-8
tp89
a(I335
I385
tp90
a(I416
I504
tp91
a(I832
I-8
tp92
a(I52
I-8
tp93
a(I572
I504
tp94
a(I1300
I504
tp95
a(I1097
I384
tp96
a(I1300
I-8
tp97
a(I1179
I274
tp98
a(I416
I-8
tp99
a(I1248
I-8
tp100
a(I572
I504
tp101
a(I832
I-8
tp102
a(I1456
I504
tp103
a(I832
I-8
tp104
a(I156
I504
tp105
a(I428
I274
tp106
a(I1248
I-8
tp107
a(I138
I385
tp108
a(I407
I160
tp109
a(I572
I504
tp110
a(I377
I385
tp111
a(I979
I274
tp112
a(I1040
I504
tp113
a(I1233
I384
tp114
a(I624
I504
tp115
a(I364
I504
tp116
a(I52
I-8
tp117
a(I260
I504
tp118
a(I244
I274
tp119
a(I208
I-8
tp120
a(I780
I504
tp121
a(I208
I-8
tp122
a(I17
I160
tp123
a(I762
I384
tp124
a(I312
I504
tp125
a(I468
I504
tp126
a(I1196
I504
tp127
a(I52
I504
tp128
a(I624
I-8
tp129
a(I1144
I504
tp130
a(I1404
I-8
tp131
a(I884
I504
tp132
a(I820
I274
tp133
a(I520
I-8
tp134
a(I1379
I160
tp135
a(I0
I504
tp136
a(I364
I-8
tp137
a(I848
I160
tp138
a(I728
I-8
tp139
a(I1212
I274
tp140
a(I780
I-8
tp141
a(I768
I274
tp142
a(I936
I504
tp143
a(I936
I504
tp144
a(I1260
I384
tp145
a(I1196
I-8
tp146
a(I912
I274
tp147
a(I947
I274
tp148
a(I780
I-8
tp149
a(I624
I504
tp150
a(I93
I385
tp151
a(I1092
I-8
tp152
a(I1352
I504
tp153
a(I572
I-8
tp154
a(I84
I274
tp155
a(I1404
I504
tp156
a(I104
I504
tp157
a(I312
I504
tp158
a(I1432
I274
tp159
a(I676
I-8
tp160
a(I416
I504
tp161
a(I884
I-8
tp162
a(I278
I385
tp163
a(I706
I385
tp164
a(I884
I-8
tp165
a(I728
I504
tp166
a(I1142
I384
tp167
a(I1422
I384
tp168
a(I1144
I504
tp169
a(I1134
I160
tp170
a(I260
I-8
tp171
a(I1144
I-8
tp172
a(I840
I384
tp173
a(I312
I-8
tp174
a(I624
I-8
tp175
a(I1056
I160
tp176
a(I624
I504
tp177
a(I290
I274
tp178
a(I1144
I274
tp179
a(I728
I-8
tp180
a(I572
I-8
tp181
a(I676
I504
tp182
a(I728
I-8
tp183
a(I1196
I504
tp184
a(I1144
I-8
tp185
a(I520
I-8
tp186
a(I1040
I504
tp187
a(I635
I385
tp188
a(I988
I504
tp189
a(I1300
I504
tp190
a(I676
I385
tp191
a(I606
I160
tp192
a(I260
I504
tp193
a(I889
I160
tp194
a(I1040
I-8
tp195
a(I708
I160
tp196
a(I1352
I-8
tp197
a(I1040
I504
tp198
a(I156
I-8
tp199
a(I676
I504
tp200
a(I1314
I274
tp201
a(I1452
I384
tp202
a(I876
I384
tp203
a(I1144
I504
tp204
a(I1092
I504
tp205
a(I1248
I-8
tp206
a(I104
I-8
tp207
a(I52
I504
tp208
a(I1460
I160
tp209
a(I520
I504
tp210
a(I1456
I-8
tp211
a(I364
I504
tp212
a(I1479
I384
tp213
a(I416
I-8
tp214
a(I750
I385
tp215
a(I1392
I274
tp216
a(I260
I-8
tp217
a(I104
I504
tp218
a(I520
I-8
tp219
a(I44
I160
tp220
a(I676
I-8
tp221
a(I364
I-8
tp222
a(I1196
I504
tp223
a(I1456
I504
tp224
a(I1040
I-8
tp225
a(I780
I504
tp226
a(I316
I160
tp227
a(I1092
I-8
tp228
a(I173
I160
tp229
a(I780
I504
tp230
a(I1015
I160
tp231
a(I832
I504
tp232
a(I487
I160
tp233
a(I104
I504
tp234
a(I728
I504
tp235
a(I267
I160
tp236
a(I0
I504
tp237
a(I988
I-8
tp238
a(I728
I504
tp239
a(I91
I160
tp240
a(I208
I504
tp241
a(I129
I160
tp242
a(I1479
I274
tp243
a(I1248
I504
tp244
a(I624
I504
tp245
a(I1340
I160
tp246
a(I676
I-8
tp247
a(I961
I384
tp248
a(I542
I385
tp249
a(I1047
I384
tp250
a(I1040
I504
tp251
a(I1352
I-8
tp252
a(I156
I504
tp253
a(I499
I385
tp254
a(I676
I-8
tp255
a(I756
I160
tp256
a(I1456
I504
tp257
a(I0
I-8
tp258
a(I728
I-8
tp259
a(I208
I504
tp260
a(I444
I160
tp261
a(I1300
I504
tp262
a(I1211
I160
tp263
a(I104
I-8
tp264
a(I624
I-8
tp265
a(I208
I504
tp266
a(I1352
I504
tp267
a(I532
I160
tp268
a(I0
I-8
tp269
a(I1095
I274
tp270
a(I1040
I-8
tp271
a(I260
I-8
tp272
a(I54
I385
tp273
a(I339
I274
tp274
a(I626
I274
tp275
a(I156
I-8
tp276
a(I1300
I-8
tp277
a(I52
I-8
tp278
a(I364
I504
tp279
a(I965
I160
tp280
a(I1196
I-8
tp281
a(I520
I504
tp282
a(I468
I504
tp283
a(I808
I384
tp284
a(I1092
I-8
tp285
a(I23
I385
tp286
a(I832
I504
tp287
a(I572
I504
tp288
a(I187
I385
tp289
a(I832
I504
tp290
a(I468
I-8
tp291
a(I52
I504
tp292
a(I1427
I160
tp293
a(I673
I274
tp294
a(I936
I504
tp295
a(I988
I504
tp296
a(I728
I504
tp297
a(I1248
I-8
tp298
a(I780
I-8
tp299
a(I1384
I384
tp300
a(I1404
I504
tp301
a(I0
I504
tp302
a(I1239
I160
tp303
a(I1001
I274
tp304
a(I988
I-8
tp305
a(I20
I274
tp306
a(I156
I504
tp307
a(I312
I-8
tp308
a(I1456
I-8
tp309
a(I416
I-8
tp310
a(I467
I385
tp311
a(I706
I274
tp312
a(I1245
I274
tp313
a(I1144
I504
tp314
a(I361
I160
tp315
a(I572
I-8
tp316
a(I468
I504
tp317
a(I260
I504
tp318
a(I312
I504
tp319
a(I988
I-8
tp320
a(I572
I-8
tp321
a(I627
I160
tp322
a(I1049
I274
tp323
a(I1504
I160
tp324
a(I467
I274
tp325
a(I988
I504
tp326
a(I1404
I-8
tp327
a(I624
I-8
tp328
a(I988
I-8
tp329
a(I517
I274
tp330
a(I468
I-8
tp331
a(I1300
I-8
tp332
a(I1404
I-8
tp333
a(I1404
I504
tp334
a(I1456
I504
tp335
a(I520
I504
tp336
a(I416
I-8
tp337
a(I1144
I-8
tp338
a(I1175
I160
tp339
a(I0
I-8
tp340
a(I573
I160
tp341
a(I312
I504
tp342
a(I260
I504
tp343
a(I104
I-8
tp344
a(I1196
I-8
tp345
a(I416
I504
tp346
a(I364
I504
tp347
a.(lp1
.(lp1
(I282
I232
tp2
a(I430
I112
tp3
a(I484
I464
tp4
a(I127
I462
tp5
a(I1427
I447
tp6
a(I792
I455
tp7
a(I518
I232
tp8
a(I264
I346
tp9
a(I256
I115
tp10
a(I394
I237
tp11
a(I1219
I452
tp12
a(I408
I342
tp13
a(I590
I116
tp14
a(I1075
I110
tp15
a(I1097
I460
tp16
a(I1262
I338
tp17
a(I1024
I224
tp18
a(I1412
I335
tp19
a(I992
I340
tp20
a(I381
I464
tp21
a(I1354
I224
tp22
a(I45
I346
tp23
a(I1346
I444
tp24
a(I904
I110
tp25
a(I882
I230
tp26
a(I1108
I342
tp27
a(I1222
I114
tp28
a(I1164
I223
tp29
a(I247
I465
tp30
a(I882
I341
tp31
a(I1384
I114
tp32
a(I529
I338
tp33
a(I109
I119
tp34
a(I940
I458
tp35
a.(lp1
(I678
I207
tp2
a(I-77
I-14
tp3
a(I266
I209
tp4
a(I23
I435
tp5
a(I1469
I202
tp6
a(I752
I318
tp7
a(I135
I320
tp8
a(I677
I432
tp9
a(I1461
I432
tp10
a(I826
I318
tp11
a(I519
I436
tp12
a(I190
I321
tp13
a.(I764
I132
t.