S'ServerRoom'
p1
.(I1000
I2000
tp1
.(I35
I1963
tp1
.(lp1
(I1010
I1610
tp2
a(I1010
I1610
tp3
a(I-10
I1334
tp4
a(I1010
I1104
tp5
a(I-10
I368
tp6
a(I1010
I598
tp7
a(I651
I1035
tp8
a(I-10
I230
tp9
a(I1010
I1748
tp10
a(I1010
I1288
tp11
a(I1010
I1380
tp12
a(I-10
I1058
tp13
a(I1010
I966
tp14
a(I-10
I92
tp15
a(I-10
I1288
tp16
a(I-10
I782
tp17
a(I-10
I276
tp18
a(I1010
I1012
tp19
a(I-10
I1656
tp20
a(I-10
I1702
tp21
a(I-10
I1242
tp22
a(I-10
I46
tp23
a(I-10
I92
tp24
a(I-10
I1196
tp25
a(I1010
I322
tp26
a(I-10
I782
tp27
a(I-10
I874
tp28
a(I-10
I1058
tp29
a(I-10
I1518
tp30
a(I847
I916
tp31
a(I1010
I1426
tp32
a(I-10
I92
tp33
a(I1010
I552
tp34
a(I1010
I920
tp35
a(I-10
I46
tp36
a(I-10
I598
tp37
a(I1010
I1288
tp38
a(I1010
I1242
tp39
a(I1010
I828
tp40
a(I-10
I1748
tp41
a(I1010
I920
tp42
a(I-10
I1472
tp43
a(I-10
I322
tp44
a(I-10
I230
tp45
a(I473
I131
tp46
a(I318
I263
tp47
a(I-10
I1518
tp48
a(I1010
I368
tp49
a(I1010
I1242
tp50
a(I-10
I920
tp51
a(I1010
I184
tp52
a(I1010
I1794
tp53
a(I-10
I138
tp54
a(I1010
I1472
tp55
a(I1010
I1104
tp56
a(I1010
I736
tp57
a(I-10
I322
tp58
a(I-10
I736
tp59
a(I-10
I276
tp60
a(I-10
I460
tp61
a(I161
I1643
tp62
a(I-10
I1288
tp63
a(I-10
I1702
tp64
a(I322
I986
tp65
a(I473
I20
tp66
a(I1010
I1794
tp67
a(I1010
I1058
tp68
a(I1010
I1564
tp69
a(I-10
I1564
tp70
a(I1010
I1472
tp71
a(I714
I226
tp72
a(I-10
I782
tp73
a(I-10
I1702
tp74
a(I1010
I0
tp75
a(I322
I836
tp76
a(I1010
I1012
tp77
a(I-10
I552
tp78
a(I1010
I1702
tp79
a(I1010
I1242
tp80
a(I-10
I644
tp81
a(I321
I691
tp82
a(I-10
I1426
tp83
a(I1010
I414
tp84
a(I-10
I1242
tp85
a(I-10
I828
tp86
a(I-10
I184
tp87
a(I-10
I1932
tp88
a(I847
I963
tp89
a(I-10
I506
tp90
a(I1010
I598
tp91
a(I1010
I1380
tp92
a(I1010
I1886
tp93
a(I-10
I966
tp94
a(I1010
I1564
tp95
a(I-10
I138
tp96
a(I-10
I920
tp97
a(I1010
I552
tp98
a(I1010
I644
tp99
a(I1010
I1932
tp100
a(I-10
I966
tp101
a(I1010
I1978
tp102
a(I-10
I1932
tp103
a(I-10
I138
tp104
a(I1010
I46
tp105
a(I1010
I598
tp106
a(I1010
I1334
tp107
a(I-10
I828
tp108
a(I1010
I1380
tp109
a(I1010
I1932
tp110
a(I1010
I0
tp111
a(I-10
I552
tp112
a(I1010
I368
tp113
a(I174
I341
tp114
a(I-10
I1472
tp115
a(I-10
I1564
tp116
a(I1010
I460
tp117
a(I-10
I184
tp118
a(I1010
I1656
tp119
a(I1010
I138
tp120
a(I1010
I322
tp121
a(I-10
I1196
tp122
a(I1010
I1150
tp123
a(I1010
I1104
tp124
a(I1010
I1748
tp125
a(I-10
I368
tp126
a(I1010
I1932
tp127
a(I-10
I1610
tp128
a(I1010
I1334
tp129
a(I-10
I828
tp130
a(I1010
I1656
tp131
a(I-10
I1242
tp132
a(I-10
I1012
tp133
a(I-10
I690
tp134
a(I-10
I230
tp135
a(I-10
I322
tp136
a(I-10
I46
tp137
a(I-10
I322
tp138
a(I-10
I460
tp139
a(I1010
I920
tp140
a(I1010
I1564
tp141
a(I1010
I1886
tp142
a(I1010
I92
tp143
a(I-10
I1150
tp144
a(I-10
I1104
tp145
a(I-10
I506
tp146
a(I847
I993
tp147
a(I-10
I736
tp148
a(I1010
I552
tp149
a(I-10
I690
tp150
a(I-10
I1840
tp151
a(I1010
I276
tp152
a(I1010
I1518
tp153
a(I1010
I966
tp154
a(I473
I109
tp155
a(I1010
I598
tp156
a(I1010
I1104
tp157
a(I-10
I1518
tp158
a(I1010
I1334
tp159
a(I1010
I1794
tp160
a(I-10
I874
tp161
a(I1010
I1518
tp162
a(I714
I263
tp163
a(I-10
I1012
tp164
a(I1010
I1104
tp165
a(I-10
I1702
tp166
a(I1010
I1564
tp167
a(I1010
I1978
tp168
a(I-10
I1932
tp169
a(I-10
I1656
tp170
a(I-10
I138
tp171
a(I1010
I1932
tp172
a(I1010
I230
tp173
a(I-10
I322
tp174
a(I-10
I644
tp175
a(I162
I1469
tp176
a(I-10
I1794
tp177
a(I1010
I322
tp178
a(I1010
I1932
tp179
a(I-10
I1426
tp180
a(I-10
I690
tp181
a(I1010
I1840
tp182
a(I321
I711
tp183
a(I-10
I1196
tp184
a(I-10
I874
tp185
a(I1010
I690
tp186
a(I-10
I414
tp187
a(I1010
I966
tp188
a(I1010
I1196
tp189
a(I1010
I1794
tp190
a(I-10
I1702
tp191
a(I1010
I644
tp192
a(I1010
I368
tp193
a(I-10
I1058
tp194
a(I644
I1867
tp195
a(I-10
I230
tp196
a(I-10
I138
tp197
a(I-10
I230
tp198
a(I-10
I1150
tp199
a(I-10
I920
tp200
a(I1010
I1978
tp201
a(I-10
I92
tp202
a(I1010
I1334
tp203
a(I1010
I368
tp204
a(I1010
I1840
tp205
a(I-10
I1518
tp206
a(I-10
I1150
tp207
a(I-10
I46
tp208
a(I-10
I506
tp209
a(I1010
I1380
tp210
a(I1010
I230
tp211
a(I-10
I966
tp212
a(I-10
I1748
tp213
a(I1010
I92
tp214
a(I830
I1286
tp215
a(I-10
I1840
tp216
a(I1010
I1334
tp217
a(I714
I242
tp218
a(I-10
I782
tp219
a(I-10
I1058
tp220
a(I483
I1153
tp221
a(I847
I874
tp222
a(I1010
I0
tp223
a(I1010
I1242
tp224
a(I1010
I1610
tp225
a(I1010
I138
tp226
a(I-10
I1564
tp227
a(I-10
I782
tp228
a(I-10
I1288
tp229
a(I1010
I1012
tp230
a(I-10
I184
tp231
a(I1010
I368
tp232
a(I-10
I1794
tp233
a(I-10
I1886
tp234
a(I1010
I46
tp235
a(I-10
I1932
tp236
a(I1010
I1656
tp237
a(I406
I1443
tp238
a(I483
I839
tp239
a(I1010
I92
tp240
a(I1010
I322
tp241
a(I1010
I1288
tp242
a(I1010
I1932
tp243
a(I1010
I1840
tp244
a(I1010
I644
tp245
a(I-10
I414
tp246
a(I-10
I322
tp247
a(I1010
I1472
tp248
a(I1010
I46
tp249
a(I-10
I46
tp250
a(I1010
I460
tp251
a(I-10
I1978
tp252
a(I1010
I690
tp253
a(I-10
I1334
tp254
a(I483
I879
tp255
a(I-10
I966
tp256
a(I1010
I1150
tp257
a(I1010
I598
tp258
a(I1010
I552
tp259
a(I1010
I552
tp260
a(I165
I1071
tp261
a(I406
I1383
tp262
a(I1010
I1472
tp263
a(I-10
I368
tp264
a(I263
I474
tp265
a(I-10
I782
tp266
a(I-10
I368
tp267
a(I-10
I1886
tp268
a(I789
I1921
tp269
a(I-10
I1748
tp270
a(I-10
I368
tp271
a(I1010
I920
tp272
a(I1010
I1104
tp273
a(I1010
I644
tp274
a(I1010
I920
tp275
a(I1010
I230
tp276
a(I-10
I736
tp277
a(I483
I1179
tp278
a(I-10
I1932
tp279
a(I1010
I1610
tp280
a(I1010
I1978
tp281
a(I-10
I782
tp282
a(I1010
I690
tp283
a(I1010
I1012
tp284
a(I1010
I276
tp285
a(I1010
I1886
tp286
a(I-10
I1150
tp287
a(I483
I989
tp288
a(I202
I1921
tp289
a(I1010
I276
tp290
a(I-10
I1610
tp291
a(I1010
I46
tp292
a(I1010
I1380
tp293
a(I1010
I1702
tp294
a(I-10
I1242
tp295
a(I1010
I1794
tp296
a(I1010
I1886
tp297
a(I-10
I598
tp298
a(I1010
I506
tp299
a(I1010
I966
tp300
a(I-10
I230
tp301
a(I-10
I1840
tp302
a(I1010
I460
tp303
a(I1010
I1840
tp304
a(I1010
I1150
tp305
a(I-10
I1978
tp306
a(I-10
I1932
tp307
a(I1010
I1978
tp308
a(I1010
I1288
tp309
a(I1010
I1748
tp310
a(I1010
I1334
tp311
a(I-10
I690
tp312
a(I-10
I1334
tp313
a(I1010
I1840
tp314
a(I-10
I92
tp315
a(I-10
I1426
tp316
a(I-10
I1288
tp317
a(I1010
I1564
tp318
a(I-10
I92
tp319
a(I162
I1499
tp320
a(I1010
I1840
tp321
a(I1010
I1058
tp322
a(I1010
I1472
tp323
a(I-10
I1886
tp324
a(I-10
I0
tp325
a(I1010
I1426
tp326
a(I-10
I414
tp327
a(I-10
I1886
tp328
a(I-10
I1794
tp329
a(I1010
I1380
tp330
a(I-10
I1472
tp331
a(I1010
I782
tp332
a(I1010
I92
tp333
a(I1010
I506
tp334
a(I1010
I138
tp335
a(I-10
I1288
tp336
a(I1010
I184
tp337
a(I1010
I1840
tp338
a(I483
I1043
tp339
a(I-10
I966
tp340
a(I1010
I1840
tp341
a(I-10
I966
tp342
a(I-10
I690
tp343
a(I-10
I506
tp344
a(I-10
I690
tp345
a(I-10
I506
tp346
a(I1010
I230
tp347
a(I1010
I690
tp348
a(I-10
I460
tp349
a(I-10
I1196
tp350
a(I-10
I368
tp351
a(I-10
I1472
tp352
a(I-10
I644
tp353
a(I-10
I460
tp354
a(I-10
I276
tp355
a(I1010
I1564
tp356
a(I-10
I460
tp357
a(I-10
I736
tp358
a(I1010
I1932
tp359
a(I-10
I1380
tp360
a(I322
I953
tp361
a(I-10
I1288
tp362
a(I-10
I1012
tp363
a(I1010
I1518
tp364
a(I322
I809
tp365
a(I-10
I1840
tp366
a(I1010
I1058
tp367
a(I-10
I1932
tp368
a(I1010
I1196
tp369
a(I1010
I322
tp370
a(I789
I1953
tp371
a(I-10
I736
tp372
a(I-10
I0
tp373
a(I-10
I690
tp374
a(I1010
I92
tp375
a(I1010
I1426
tp376
a(I-10
I1656
tp377
a(I-10
I1058
tp378
a(I-10
I1978
tp379
a(I651
I1069
tp380
a(I322
I867
tp381
a(I1010
I1978
tp382
a(I-10
I414
tp383
a(I-10
I276
tp384
a(I-10
I1794
tp385
a(I-10
I368
tp386
a(I-10
I1886
tp387
a(I1010
I230
tp388
a(I-10
I0
tp389
a(I1010
I552
tp390
a(I-10
I1288
tp391
a(I1010
I1426
tp392
a(I1010
I0
tp393
a(I1010
I1288
tp394
a(I1010
I690
tp395
a(I-10
I184
tp396
a(I-10
I1564
tp397
a(I-10
I0
tp398
a(I1010
I1012
tp399
a(I697
I1442
tp400
a(I-10
I598
tp401
a(I-10
I690
tp402
a(I1010
I1886
tp403
a(I1010
I460
tp404
a(I1010
I598
tp405
a(I1010
I874
tp406
a(I-10
I1150
tp407
a(I1010
I1058
tp408
a(I-10
I1472
tp409
a(I1010
I1978
tp410
a(I-10
I1656
tp411
a(I1010
I782
tp412
a(I-10
I276
tp413
a(I-10
I1564
tp414
a(I1010
I1196
tp415
a(I-10
I1794
tp416
a(I-10
I1932
tp417
a(I1010
I966
tp418
a(I1010
I1242
tp419
a(I-10
I1196
tp420
a(I1010
I782
tp421
a(I-10
I1196
tp422
a(I-10
I1840
tp423
a(I-10
I1794
tp424
a(I1010
I138
tp425
a(I1010
I874
tp426
a(I1010
I690
tp427
a(I-10
I1472
tp428
a(I-10
I1242
tp429
a(I-10
I1288
tp430
a(I-10
I1518
tp431
a(I1010
I414
tp432
a(I-10
I414
tp433
a(I1010
I1518
tp434
a(I-10
I828
tp435
a(I174
I401
tp436
a(I1010
I1610
tp437
a(I1010
I276
tp438
a(I-10
I1150
tp439
a(I-10
I460
tp440
a(I-10
I414
tp441
a(I-10
I46
tp442
a(I483
I953
tp443
a(I-10
I92
tp444
a(I1010
I1012
tp445
a(I1010
I92
tp446
a(I483
I1109
tp447
a(I-10
I966
tp448
a(I-10
I92
tp449
a(I697
I1423
tp450
a(I1010
I414
tp451
a(I-10
I1380
tp452
a(I1010
I92
tp453
a(I1010
I1932
tp454
a(I-10
I1656
tp455
a(I-10
I1196
tp456
a(I1010
I1702
tp457
a(I651
I1108
tp458
a(I-10
I184
tp459
a(I1010
I1748
tp460
a(I1010
I1426
tp461
a(I-10
I460
tp462
a(I-10
I874
tp463
a(I-10
I598
tp464
a(I1010
I552
tp465
a(I-10
I1656
tp466
a(I1010
I138
tp467
a(I-10
I644
tp468
a(I-10
I322
tp469
a(I1010
I1334
tp470
a(I1010
I598
tp471
a(I1010
I1242
tp472
a(I-10
I1242
tp473
a(I-10
I1518
tp474
a(I1010
I736
tp475
a(I1010
I1104
tp476
a(I1010
I46
tp477
a(I-10
I1978
tp478
a(I-10
I184
tp479
a(I-10
I598
tp480
a(I-10
I1150
tp481
a(I-10
I1472
tp482
a(I-10
I276
tp483
a(I1010
I736
tp484
a(I1010
I1058
tp485
a(I1010
I920
tp486
a(I-10
I1610
tp487
a(I1010
I644
tp488
a(I-10
I46
tp489
a(I830
I1328
tp490
a(I1010
I460
tp491
a(I263
I516
tp492
a(I1010
I1748
tp493
a(I1010
I506
tp494
a(I-10
I1518
tp495
a(I-10
I230
tp496
a(I506
I1980
tp497
a(I165
I1039
tp498
a(I-10
I736
tp499
a(I-10
I1334
tp500
a(I1010
I966
tp501
a(I-10
I1656
tp502
a(I-10
I1748
tp503
a(I1010
I966
tp504
a(I318
I241
tp505
a(I1010
I1196
tp506
a(I876
I112
tp507
a(I1010
I1656
tp508
a(I1010
I230
tp509
a(I-10
I1610
tp510
a(I1010
I1978
tp511
a(I-10
I828
tp512
a(I1010
I1012
tp513
a(I1010
I828
tp514
a(I1010
I1288
tp515
a(I-10
I1840
tp516
a(I1010
I138
tp517
a(I644
I1805
tp518
a(I1010
I230
tp519
a(I321
I752
tp520
a(I-10
I322
tp521
a(I406
I1415
tp522
a(I1010
I1610
tp523
a(I-10
I874
tp524
a(I1010
I0
tp525
a(I-10
I368
tp526
a(I1010
I1196
tp527
a(I-10
I1334
tp528
a(I-10
I644
tp529
a(I1010
I414
tp530
a(I-10
I276
tp531
a(I-10
I276
tp532
a(I1010
I46
tp533
a(I1010
I736
tp534
a(I1010
I414
tp535
a(I1010
I874
tp536
a(I1010
I1840
tp537
a(I-10
I1886
tp538
a(I1010
I276
tp539
a(I1010
I1564
tp540
a(I-10
I1610
tp541
a(I-10
I1380
tp542
a(I1010
I1656
tp543
a(I1010
I1794
tp544
a(I644
I1815
tp545
a(I-10
I552
tp546
a(I1010
I1058
tp547
a(I-10
I1426
tp548
a(I-10
I1288
tp549
a(I-10
I1104
tp550
a(I-10
I1104
tp551
a(I1010
I1656
tp552
a(I-10
I1196
tp553
a(I1010
I828
tp554
a(I-10
I552
tp555
a(I1010
I1288
tp556
a(I1010
I920
tp557
a(I-10
I1610
tp558
a(I1010
I1564
tp559
a(I-10
I1242
tp560
a(I1010
I184
tp561
a(I-10
I0
tp562
a(I1010
I1150
tp563
a(I1010
I1472
tp564
a(I473
I172
tp565
a(I-10
I828
tp566
a(I1010
I1150
tp567
a(I-10
I414
tp568
a(I1010
I552
tp569
a(I-10
I1748
tp570
a(I-10
I506
tp571
a(I1010
I184
tp572
a(I1010
I230
tp573
a(I-10
I1058
tp574
a(I-10
I138
tp575
a(I1010
I1656
tp576
a(I-10
I1380
tp577
a(I473
I55
tp578
a(I1010
I1196
tp579
a(I-10
I1196
tp580
a(I1010
I92
tp581
a(I1010
I920
tp582
a(I1010
I1932
tp583
a(I-10
I1058
tp584
a(I1010
I736
tp585
a(I-10
I1748
tp586
a(I1010
I1150
tp587
a(I-10
I690
tp588
a(I-10
I598
tp589
a(I-10
I552
tp590
a(I1010
I598
tp591
a(I1010
I1058
tp592
a(I-10
I1564
tp593
a(I-10
I966
tp594
a(I1010
I368
tp595
a(I-10
I1334
tp596
a(I-10
I138
tp597
a(I1010
I1748
tp598
a(I162
I1528
tp599
a(I-10
I506
tp600
a(I174
I356
tp601
a(I1010
I828
tp602
a(I338
I1833
tp603
a(I697
I1383
tp604
a(I-10
I1840
tp605
a(I483
I921
tp606
a(I1010
I1886
tp607
a(I1010
I644
tp608
a(I161
I1619
tp609
a(I-10
I644
tp610
a(I-10
I1104
tp611
a(I1010
I506
tp612
a(I1010
I874
tp613
a(I-10
I506
tp614
a(I483
I818
tp615
a(I-10
I1886
tp616
a(I1010
I1334
tp617
a(I1010
I1794
tp618
a(I483
I1219
tp619
a(I1010
I414
tp620
a(I-10
I1426
tp621
a(I1010
I506
tp622
a(I1010
I782
tp623
a(I1010
I1518
tp624
a(I1010
I1518
tp625
a(I1010
I1242
tp626
a(I-10
I1058
tp627
a(I1010
I414
tp628
a(I-10
I414
tp629
a(I1010
I1380
tp630
a(I1010
I276
tp631
a(I-10
I368
tp632
a(I-10
I874
tp633
a(I830
I1273
tp634
a(I-10
I1840
tp635
a(I1010
I1518
tp636
a(I1010
I1334
tp637
a(I1010
I1150
tp638
a(I1010
I506
tp639
a(I-10
I1426
tp640
a(I506
I1920
tp641
a(I1010
I506
tp642
a(I-10
I552
tp643
a(I1010
I736
tp644
a(I-10
I1794
tp645
a(I-10
I1886
tp646
a(I1010
I1426
tp647
a(I-10
I828
tp648
a(I1010
I46
tp649
a(I650
I923
tp650
a(I1010
I1196
tp651
a(I1010
I1518
tp652
a(I-10
I1380
tp653
a(I1010
I0
tp654
a(I1010
I1288
tp655
a(I-10
I1150
tp656
a(I-10
I506
tp657
a(I-10
I1242
tp658
a(I-10
I920
tp659
a(I1010
I1288
tp660
a(I1010
I1196
tp661
a(I-10
I736
tp662
a(I-10
I644
tp663
a(I483
I1074
tp664
a(I1010
I138
tp665
a(I-10
I460
tp666
a(I-10
I874
tp667
a(I789
I1982
tp668
a(I-10
I782
tp669
a(I876
I129
tp670
a(I-10
I230
tp671
a(I1010
I0
tp672
a(I-10
I1702
tp673
a(I319
I401
tp674
a(I1010
I736
tp675
a(I-10
I1978
tp676
a(I-10
I1978
tp677
a(I714
I284
tp678
a(I-10
I782
tp679
a(I-10
I1794
tp680
a(I847
I807
tp681
a(I1010
I46
tp682
a(I1010
I184
tp683
a(I1010
I368
tp684
a(I1010
I1702
tp685
a(I161
I1582
tp686
a(I1010
I506
tp687
a(I1010
I874
tp688
a(I-10
I1610
tp689
a(I-10
I920
tp690
a(I-10
I1012
tp691
a(I-10
I184
tp692
a(I-10
I644
tp693
a(I-10
I552
tp694
a(I1010
I1380
tp695
a(I-10
I1656
tp696
a(I1010
I1748
tp697
a(I-10
I1104
tp698
a(I1010
I828
tp699
a(I1010
I874
tp700
a(I1010
I414
tp701
a(I-10
I1702
tp702
a(I161
I1595
tp703
a(I-10
I1518
tp704
a(I-10
I920
tp705
a(I1010
I782
tp706
a(I1010
I644
tp707
a(I1010
I1472
tp708
a(I650
I990
tp709
a(I1010
I874
tp710
a(I-10
I1978
tp711
a(I-10
I920
tp712
a(I1010
I1518
tp713
a(I-10
I1472
tp714
a(I-10
I46
tp715
a(I-10
I0
tp716
a(I1010
I1196
tp717
a(I1010
I1104
tp718
a(I-10
I0
tp719
a(I-10
I598
tp720
a(I1010
I1794
tp721
a(I1010
I1610
tp722
a(I1010
I1426
tp723
a(I-10
I1426
tp724
a(I165
I1102
tp725
a(I1010
I782
tp726
a(I-10
I1932
tp727
a(I-10
I828
tp728
a(I-10
I184
tp729
a(I317
I111
tp730
a(I-10
I874
tp731
a(I1010
I184
tp732
a(I-10
I1012
tp733
a(I1010
I690
tp734
a(I1010
I644
tp735
a(I-10
I1564
tp736
a(I1010
I414
tp737
a(I1010
I92
tp738
a(I338
I1867
tp739
a(I-10
I1794
tp740
a(I1010
I276
tp741
a(I-10
I736
tp742
a(I1010
I1104
tp743
a(I-10
I1426
tp744
a(I-10
I322
tp745
a(I1010
I828
tp746
a(I-10
I1978
tp747
a(I1010
I598
tp748
a(I1010
I1012
tp749
a(I-10
I276
tp750
a(I322
I922
tp751
a(I-10
I1610
tp752
a(I-10
I1426
tp753
a(I-10
I966
tp754
a(I1010
I1242
tp755
a(I-10
I552
tp756
a(I-10
I1334
tp757
a(I1010
I1472
tp758
a(I1010
I966
tp759
a(I1010
I46
tp760
a(I-10
I1380
tp761
a(I-10
I1012
tp762
a(I-10
I644
tp763
a(I-10
I138
tp764
a(I1010
I1702
tp765
a(I1010
I828
tp766
a(I1010
I874
tp767
a(I1010
I1426
tp768
a(I1010
I1886
tp769
a(I1010
I1656
tp770
a(I-10
I1564
tp771
a(I-10
I1748
tp772
a(I1010
I506
tp773
a(I1010
I1150
tp774
a(I1010
I736
tp775
a(I-10
I828
tp776
a(I1010
I782
tp777
a(I319
I342
tp778
a(I-10
I1104
tp779
a(I1010
I1978
tp780
a(I-10
I460
tp781
a(I1010
I736
tp782
a(I-10
I1886
tp783
a(I338
I1805
tp784
a(I1010
I966
tp785
a(I-10
I138
tp786
a(I-10
I736
tp787
a(I1010
I276
tp788
a(I1010
I322
tp789
a(I1010
I828
tp790
a(I1010
I782
tp791
a(I1010
I276
tp792
a(I1010
I138
tp793
a(I1010
I1012
tp794
a(I1010
I1748
tp795
a(I-10
I92
tp796
a(I-10
I1104
tp797
a(I644
I1841
tp798
a(I876
I172
tp799
a(I1010
I368
tp800
a(I1010
I0
tp801
a(I1010
I0
tp802
a(I-10
I598
tp803
a(I202
I1937
tp804
a(I-10
I184
tp805
a(I-10
I1978
tp806
a(I1010
I368
tp807
a(I1010
I1058
tp808
a(I1010
I460
tp809
a(I-10
I1334
tp810
a(I317
I145
tp811
a(I-10
I1702
tp812
a(I-10
I1472
tp813
a(I1010
I828
tp814
a(I-10
I0
tp815
a(I-10
I1012
tp816
a(I847
I838
tp817
a(I-10
I1748
tp818
a(I-10
I1380
tp819
a(I1010
I322
tp820
a(I-10
I1380
tp821
a(I1010
I184
tp822
a(I1010
I874
tp823
a(I-10
I1242
tp824
a(I1010
I322
tp825
a(I1010
I322
tp826
a(I1010
I460
tp827
a(I-10
I1334
tp828
a(I-10
I1104
tp829
a(I1010
I1886
tp830
a(I-10
I1012
tp831
a(I1010
I184
tp832
a(I473
I148
tp833
a(I-10
I1012
tp834
a(I-10
I1104
tp835
a(I-10
I1702
tp836
a(I-10
I1380
tp837
a(I-10
I0
tp838
a(I202
I1981
tp839
a(I1010
I1702
tp840
a(I1010
I138
tp841
a(I-10
I1564
tp842
a(I1010
I690
tp843
a(I650
I958
tp844
a(I1010
I230
tp845
a(I-10
I46
tp846
a(I1010
I1472
tp847
a(I-10
I414
tp848
a(I1010
I1242
tp849
a(I1010
I1610
tp850
a(I1010
I1702
tp851
a(I1010
I690
tp852
a(I-10
I1748
tp853
a(I1010
I644
tp854
a(I-10
I920
tp855
a(I1010
I1656
tp856
a(I1010
I1058
tp857
a(I1010
I1794
tp858
a(I1010
I782
tp859
a(I-10
I598
tp860
a(I506
I1960
tp861
a(I1010
I552
tp862
a(I1010
I920
tp863
a(I-10
I1150
tp864
a(I318
I227
tp865
a(I1010
I184
tp866
a(I318
I285
tp867
a(I-10
I874
tp868
a(I-10
I1518
tp869
a(I1010
I1886
tp870
a(I-10
I1840
tp871
a(I-10
I920
tp872
a(I1010
I1426
tp873
a(I1010
I1380
tp874
a(I1010
I1748
tp875
a(I1010
I1702
tp876
a(I1010
I1564
tp877
a(I-10
I1058
tp878
a(I847
I941
tp879
a(I1010
I1702
tp880
a(I1010
I1610
tp881
a(I1010
I1150
tp882
a(I-10
I1656
tp883
a(I-10
I552
tp884
a(I317
I173
tp885
a(I-10
I1610
tp886
a(I1010
I460
tp887
a(I1010
I460
tp888
a(I-10
I230
tp889
a(I319
I357
tp890
a(I263
I456
tp891
a.(lp1
(I346
I1246
tp2
a(I884
I2005
tp3
a(I312
I-8
tp4
a(I906
I1135
tp5
a(I104
I2005
tp6
a(I884
I-8
tp7
a(I572
I2005
tp8
a(I552
I543
tp9
a(I364
I2004
tp10
a(I780
I2004
tp11
a(I422
I1246
tp12
a(I798
I1135
tp13
a(I936
I2005
tp14
a(I416
I-10
tp15
a(I208
I2005
tp16
a(I114
I1778
tp17
a(I701
I85
tp18
a(I364
I-8
tp19
a(I629
I1470
tp20
a(I104
I-10
tp21
a(I595
I903
tp22
a(I503
I543
tp23
a(I52
I2005
tp24
a(I728
I2005
tp25
a(I564
I1135
tp26
a(I156
I2004
tp27
a(I830
I664
tp28
a(I617
I313
tp29
a(I728
I2005
tp30
a(I46
I1669
tp31
a(I260
I2005
tp32
a(I21
I1012
tp33
a(I208
I-8
tp34
a(I312
I2005
tp35
a(I903
I906
tp36
a(I713
I429
tp37
a(I887
I1356
tp38
a(I345
I429
tp39
a(I43
I1355
tp40
a(I197
I83
tp41
a(I19
I1246
tp42
a(I572
I2005
tp43
a(I227
I1012
tp44
a(I312
I-10
tp45
a(I676
I-10
tp46
a(I832
I2004
tp47
a(I727
I664
tp48
a(I520
I-10
tp49
a(I179
I1894
tp50
a(I156
I2005
tp51
a(I676
I2005
tp52
a(I884
I-10
tp53
a(I538
I1894
tp54
a(I936
I-10
tp55
a(I71
I664
tp56
a(I868
I664
tp57
a(I981
I1021
tp58
a(I312
I2005
tp59
a(I416
I-10
tp60
a(I977
I1470
tp61
a(I624
I-8
tp62
a(I832
I-10
tp63
a(I156
I-10
tp64
a(I0
I2005
tp65
a(I588
I429
tp66
a(I633
I1778
tp67
a(I936
I-10
tp68
a(I312
I2005
tp69
a(I364
I-10
tp70
a(I208
I-10
tp71
a(I556
I313
tp72
a(I260
I-8
tp73
a(I802
I85
tp74
a(I580
I1470
tp75
a(I860
I1246
tp76
a(I96
I1669
tp77
a(I416
I2004
tp78
a(I0
I2005
tp79
a(I208
I2005
tp80
a(I728
I2005
tp81
a(I884
I2005
tp82
a(I-5
I83
tp83
a(I832
I-10
tp84
a(I884
I2005
tp85
a(I988
I-8
tp86
a(I982
I789
tp87
a(I425
I1894
tp88
a(I0
I2005
tp89
a(I819
I790
tp90
a(I52
I-10
tp91
a(I572
I2005
tp92
a(I105
I780
tp93
a(I832
I2005
tp94
a(I156
I2005
tp95
a(I364
I-10
tp96
a(I631
I429
tp97
a(I260
I2005
tp98
a(I104
I-10
tp99
a(I728
I2004
tp100
a(I122
I83
tp101
a(I364
I2004
tp102
a(I676
I2005
tp103
a(I468
I2005
tp104
a(I563
I1016
tp105
a(I156
I-8
tp106
a(I312
I-10
tp107
a(I130
I1894
tp108
a(I884
I-10
tp109
a(I532
I1778
tp110
a(I109
I1129
tp111
a(I121
I664
tp112
a(I46
I199
tp113
a(I834
I543
tp114
a(I780
I-10
tp115
a(I104
I-10
tp116
a(I0
I-8
tp117
a(I184
I313
tp118
a(I519
I85
tp119
a(I961
I1021
tp120
a(I16
I1355
tp121
a(I944
I789
tp122
a(I156
I-8
tp123
a(I37
I1894
tp124
a(I328
I1894
tp125
a(I249
I199
tp126
a(I724
I790
tp127
a(I364
I2005
tp128
a(I988
I-8
tp129
a(I208
I2005
tp130
a(I884
I2004
tp131
a(I575
I313
tp132
a(I94
I199
tp133
a(I0
I-10
tp134
a(I200
I199
tp135
a(I297
I429
tp136
a(I988
I-10
tp137
a(I930
I1778
tp138
a(I978
I1778
tp139
a(I832
I-10
tp140
a(I572
I-10
tp141
a(I988
I-10
tp142
a(I312
I2004
tp143
a(I260
I-10
tp144
a(I884
I-10
tp145
a(I884
I2005
tp146
a(I832
I-8
tp147
a(I680
I664
tp148
a(I810
I1355
tp149
a(I875
I789
tp150
a(I988
I2005
tp151
a(I832
I2005
tp152
a(I283
I83
tp153
a(I734
I664
tp154
a(I235
I780
tp155
a(I624
I-8
tp156
a(I299
I313
tp157
a(I208
I-10
tp158
a(I572
I-10
tp159
a(I728
I-8
tp160
a(I695
I790
tp161
a(I936
I-10
tp162
a(I630
I1016
tp163
a(I936
I1891
tp164
a(I42
I83
tp165
a(I132
I199
tp166
a(I572
I-10
tp167
a(I156
I2004
tp168
a(I181
I543
tp169
a(I19
I664
tp170
a(I133
I1555
tp171
a(I147
I1778
tp172
a(I728
I-10
tp173
a(I1
I429
tp174
a(I988
I2004
tp175
a(I911
I664
tp176
a(I622
I790
tp177
a(I624
I2005
tp178
a(I717
I1135
tp179
a(I52
I2005
tp180
a(I758
I1246
tp181
a(I364
I2005
tp182
a(I0
I2005
tp183
a(I832
I2004
tp184
a(I988
I-10
tp185
a(I208
I-10
tp186
a(I270
I543
tp187
a(I92
I313
tp188
a(I364
I-10
tp189
a(I468
I-10
tp190
a(I289
I1778
tp191
a(I552
I1470
tp192
a(I59
I543
tp193
a(I416
I2005
tp194
a(I93
I429
tp195
a(I780
I-10
tp196
a(I819
I200
tp197
a(I914
I313
tp198
a(I48
I429
tp199
a(I624
I-10
tp200
a(I302
I895
tp201
a(I416
I-10
tp202
a(I572
I-8
tp203
a(I217
I313
tp204
a(I514
I1135
tp205
a(I260
I2005
tp206
a(I312
I-10
tp207
a(I0
I-10
tp208
a(I941
I429
tp209
a(I52
I2005
tp210
a(I194
I1012
tp211
a(I260
I2005
tp212
a(I853
I85
tp213
a(I230
I1246
tp214
a(I134
I1246
tp215
a(I780
I2005
tp216
a(I52
I-10
tp217
a(I312
I-10
tp218
a(I391
I83
tp219
a(I884
I2004
tp220
a(I213
I1355
tp221
a(I768
I429
tp222
a(I198
I780
tp223
a(I298
I200
tp224
a(I884
I2005
tp225
a(I832
I-10
tp226
a(I936
I2005
tp227
a(I468
I2005
tp228
a(I728
I-10
tp229
a(I260
I-10
tp230
a(I875
I1135
tp231
a(I728
I-8
tp232
a(I520
I2005
tp233
a(I572
I2005
tp234
a(I468
I-10
tp235
a(I779
I1355
tp236
a(I683
I1355
tp237
a(I24
I543
tp238
a(I936
I-10
tp239
a(I104
I2004
tp240
a(I936
I-10
tp241
a(I416
I-10
tp242
a(I676
I2005
tp243
a(I966
I1135
tp244
a(I458
I429
tp245
a(I626
I85
tp246
a(I723
I1778
tp247
a(I488
I664
tp248
a(I704
I313
tp249
a(I260
I-10
tp250
a(I80
I1555
tp251
a(I104
I-10
tp252
a(I452
I1778
tp253
a(I520
I-10
tp254
a(I936
I2005
tp255
a(I585
I1894
tp256
a(I473
I200
tp257
a(I936
I-8
tp258
a(I142
I1555
tp259
a(I477
I664
tp260
a(I988
I2005
tp261
a(I668
I790
tp262
a(I419
I429
tp263
a(I126
I1443
tp264
a(I125
I1355
tp265
a(I46
I1778
tp266
a(I928
I1246
tp267
a(I312
I1246
tp268
a(I520
I2004
tp269
a(I104
I2005
tp270
a(I786
I790
tp271
a(I416
I2005
tp272
a(I624
I-10
tp273
a(I832
I2005
tp274
a(I156
I2005
tp275
a(I624
I-10
tp276
a(I676
I2005
tp277
a(I780
I2004
tp278
a(I208
I-8
tp279
a(I676
I2005
tp280
a(I168
I199
tp281
a(I52
I2005
tp282
a(I58
I313
tp283
a(I463
I1894
tp284
a(I624
I-10
tp285
a(I624
I2005
tp286
a(I113
I1012
tp287
a(I140
I1669
tp288
a(I182
I1355
tp289
a(I0
I-10
tp290
a(I347
I1355
tp291
a(I91
I1246
tp292
a(I832
I2005
tp293
a(I728
I2005
tp294
a(I62
I1129
tp295
a(I158
I83
tp296
a(I520
I-10
tp297
a(I102
I1555
tp298
a(I52
I-10
tp299
a(I52
I2004
tp300
a(I468
I2004
tp301
a(I213
I664
tp302
a(I104
I-10
tp303
a(I988
I-10
tp304
a(I906
I1246
tp305
a(I229
I1894
tp306
a(I416
I-8
tp307
a(I208
I2005
tp308
a(I728
I-10
tp309
a(I696
I543
tp310
a(I156
I-10
tp311
a(I208
I-10
tp312
a(I490
I1894
tp313
a(I503
I1016
tp314
a(I728
I2005
tp315
a(I0
I2005
tp316
a(I503
I790
tp317
a(I52
I-8
tp318
a(I312
I2005
tp319
a(I52
I2005
tp320
a(I265
I780
tp321
a(I872
I1470
tp322
a(I0
I-10
tp323
a(I688
I200
tp324
a(I156
I-10
tp325
a(I684
I1894
tp326
a(I43
I1012
tp327
a(I416
I2005
tp328
a(I728
I2005
tp329
a(I241
I1778
tp330
a(I572
I2005
tp331
a(I364
I-10
tp332
a(I733
I1894
tp333
a(I66
I199
tp334
a(I624
I2005
tp335
a(I156
I2005
tp336
a(I52
I-10
tp337
a(I520
I2005
tp338
a(I312
I-10
tp339
a(I710
I1470
tp340
a(I631
I1135
tp341
a(I520
I2005
tp342
a(I907
I429
tp343
a(I364
I-10
tp344
a(I364
I2005
tp345
a(I982
I429
tp346
a(I208
I-10
tp347
a(I535
I85
tp348
a(I728
I-10
tp349
a(I260
I2004
tp350
a(I411
I1778
tp351
a(I312
I2005
tp352
a(I104
I-8
tp353
a(I520
I2005
tp354
a(I849
I1778
tp355
a(I624
I2005
tp356
a(I260
I2005
tp357
a(I520
I-8
tp358
a(I363
I543
tp359
a(I416
I2004
tp360
a(I884
I-10
tp361
a(I104
I-10
tp362
a(I676
I2005
tp363
a(I780
I-8
tp364
a(I423
I83
tp365
a(I877
I429
tp366
a(I312
I2005
tp367
a(I269
I313
tp368
a(I534
I1246
tp369
a(I922
I789
tp370
a(I832
I-8
tp371
a(I0
I-10
tp372
a(I624
I-10
tp373
a(I52
I-10
tp374
a(I25
I1443
tp375
a(I936
I2004
tp376
a(I579
I790
tp377
a(I104
I2004
tp378
a(I21
I1778
tp379
a(I936
I-10
tp380
a(I676
I-10
tp381
a(I572
I2004
tp382
a(I780
I2005
tp383
a(I601
I200
tp384
a(I312
I2005
tp385
a(I520
I-10
tp386
a(I572
I-10
tp387
a(I974
I543
tp388
a(I52
I2005
tp389
a(I624
I2005
tp390
a(I218
I895
tp391
a(I600
I543
tp392
a(I333
I1778
tp393
a(I0
I1894
tp394
a(I184
I895
tp395
a(I832
I2005
tp396
a(I468
I-8
tp397
a(I988
I2005
tp398
a(I810
I429
tp399
a(I923
I543
tp400
a(I250
I1355
tp401
a(I310
I664
tp402
a(I832
I2005
tp403
a(I988
I2005
tp404
a(I104
I2005
tp405
a(I312
I-10
tp406
a(I572
I2005
tp407
a(I416
I2005
tp408
a(I0
I-10
tp409
a(I520
I-8
tp410
a(I572
I-10
tp411
a(I520
I2005
tp412
a(I156
I-10
tp413
a(I117
I1443
tp414
a(I468
I2004
tp415
a(I629
I664
tp416
a(I364
I2005
tp417
a(I499
I1778
tp418
a(I554
I200
tp419
a(I633
I1894
tp420
a(I139
I543
tp421
a(I884
I-10
tp422
a(I146
I1012
tp423
a(I520
I-10
tp424
a(I495
I429
tp425
a(I104
I-8
tp426
a(I567
I1778
tp427
a(I52
I2004
tp428
a(I302
I1012
tp429
a(I261
I664
tp430
a(I982
I664
tp431
a(I981
I1135
tp432
a(I321
I543
tp433
a(I520
I2005
tp434
a(I583
I664
tp435
a(I462
I543
tp436
a(I832
I-10
tp437
a(I86
I1894
tp438
a(I52
I-10
tp439
a(I833
I313
tp440
a(I260
I2005
tp441
a(I40
I1555
tp442
a(I364
I2005
tp443
a(I470
I1470
tp444
a(I624
I-10
tp445
a(I65
I1012
tp446
a(I988
I-10
tp447
a(I572
I-10
tp448
a(I55
I1555
tp449
a(I572
I2005
tp450
a(I880
I1778
tp451
a(I780
I-10
tp452
a(I988
I2005
tp453
a(I87
I83
tp454
a(I676
I2005
tp455
a(I930
I906
tp456
a(I434
I664
tp457
a(I156
I-10
tp458
a(I68
I1778
tp459
a(I508
I1470
tp460
a(I156
I-10
tp461
a(I780
I2005
tp462
a(I728
I-10
tp463
a(I468
I-10
tp464
a(I364
I2005
tp465
a(I208
I2005
tp466
a(I792
I200
tp467
a(I520
I2004
tp468
a(I676
I-10
tp469
a(I190
I1778
tp470
a(I148
I895
tp471
a(I104
I895
tp472
a(I782
I1894
tp473
a(I936
I2005
tp474
a(I607
I1778
tp475
a(I96
I543
tp476
a(I142
I1443
tp477
a(I780
I2005
tp478
a(I936
I-10
tp479
a(I779
I1246
tp480
a(I673
I1246
tp481
a(I780
I2005
tp482
a(I156
I2005
tp483
a(I520
I-10
tp484
a(I416
I-8
tp485
a(I468
I-10
tp486
a(I721
I1246
tp487
a(I104
I2005
tp488
a(I260
I-10
tp489
a(I771
I85
tp490
a(I838
I1470
tp491
a(I416
I2005
tp492
a(I217
I429
tp493
a(I152
I1355
tp494
a(I416
I2005
tp495
a(I138
I313
tp496
a(I572
I-8
tp497
a(I988
I-10
tp498
a(I676
I-10
tp499
a(I676
I-8
tp500
a(I647
I543
tp501
a(I510
I313
tp502
a(I905
I1470
tp503
a(I52
I2005
tp504
a(I780
I-10
tp505
a(I962
I789
tp506
a(I468
I-10
tp507
a(I25
I780
tp508
a(I1
I1669
tp509
a(I14
I1129
tp510
a(I388
I1246
tp511
a(I208
I2005
tp512
a(I660
I1470
tp513
a(I468
I-10
tp514
a(I220
I543
tp515
a(I531
I790
tp516
a(I988
I2004
tp517
a(I737
I85
tp518
a(I456
I1246
tp519
a(I156
I2005
tp520
a(I879
I543
tp521
a(I312
I-8
tp522
a(I104
I2005
tp523
a(I208
I-10
tp524
a(I627
I1246
tp525
a(I584
I1246
tp526
a(I936
I2005
tp527
a(I468
I2005
tp528
a(I468
I-8
tp529
a(I364
I-8
tp530
a(I208
I2004
tp531
a(I884
I-8
tp532
a(I301
I1355
tp533
a(I104
I2005
tp534
a(I882
I906
tp535
a(I674
I1778
tp536
a(I884
I2005
tp537
a(I855
I200
tp538
a(I345
I313
tp539
a(I473
I83
tp540
a(I467
I313
tp541
a(I728
I2004
tp542
a(I416
I-10
tp543
a(I262
I895
tp544
a(I758
I1470
tp545
a(I208
I2005
tp546
a(I572
I2004
tp547
a(I737
I1355
tp548
a(I537
I664
tp549
a(I943
I313
tp550
a(I978
I1891
tp551
a(I426
I313
tp552
a(I960
I664
tp553
a(I884
I-10
tp554
a(I586
I1016
tp555
a(I832
I2005
tp556
a(I52
I-10
tp557
a(I236
I83
tp558
a(I760
I790
tp559
a(I913
I1021
tp560
a(I16
I895
tp561
a(I624
I2005
tp562
a(I312
I2004
tp563
a(I0
I2004
tp564
a(I0
I2005
tp565
a(I740
I1246
tp566
a(I55
I1246
tp567
a(I504
I1246
tp568
a(I728
I-10
tp569
a(I718
I1355
tp570
a(I416
I2005
tp571
a(I978
I1246
tp572
a(I392
I1355
tp573
a(I927
I1470
tp574
a(I936
I2005
tp575
a(I162
I664
tp576
a(I0
I-8
tp577
a(I468
I2005
tp578
a(I836
I1135
tp579
a(I90
I1443
tp580
a(I37
I664
tp581
a(I505
I200
tp582
a(I427
I1470
tp583
a(I716
I200
tp584
a(I832
I-10
tp585
a(I156
I-10
tp586
a(I624
I2005
tp587
a(I807
I1470
tp588
a(I676
I-10
tp589
a(I364
I-10
tp590
a(I977
I1356
tp591
a(I146
I1129
tp592
a(I295
I83
tp593
a(I415
I543
tp594
a(I817
I1778
tp595
a(I380
I200
tp596
a(I364
I2005
tp597
a(I395
I664
tp598
a(I423
I200
tp599
a(I670
I429
tp600
a(I67
I1443
tp601
a(I624
I-10
tp602
a(I260
I-8
tp603
a(I300
I780
tp604
a(I550
I85
tp605
a(I572
I-10
tp606
a(I676
I-10
tp607
a(I725
I429
tp608
a(I208
I-10
tp609
a(I186
I1246
tp610
a(I391
I313
tp611
a(I676
I2004
tp612
a(I260
I-10
tp613
a(I468
I2005
tp614
a(I728
I-10
tp615
a(I748
I200
tp616
a(I259
I1012
tp617
a(I676
I2004
tp618
a(I676
I-10
tp619
a(I354
I664
tp620
a(I884
I-10
tp621
a(I646
I200
tp622
a(I884
I2005
tp623
a(I273
I1246
tp624
a(I16
I199
tp625
a(I780
I2005
tp626
a(I15
I1555
tp627
a(I468
I2005
tp628
a(I781
I664
tp629
a(I780
I-8
tp630
a(I535
I1016
tp631
a(I780
I-10
tp632
a(I791
I543
tp633
a(I780
I2005
tp634
a(I149
I780
tp635
a(I619
I903
tp636
a(I867
I1021
tp637
a(I312
I-10
tp638
a(I842
I429
tp639
a(I66
I1355
tp640
a(I757
I1135
tp641
a(I598
I1135
tp642
a(I260
I2004
tp643
a(I260
I-10
tp644
a(I680
I1135
tp645
a(I72
I780
tp646
a(I260
I429
tp647
a(I103
I1355
tp648
a(I981
I313
tp649
a(I936
I2004
tp650
a(I562
I903
tp651
a(I343
I200
tp652
a(I104
I2005
tp653
a(I728
I2005
tp654
a(I171
I429
tp655
a(I0
I2004
tp656
a(I988
I-10
tp657
a(I676
I-8
tp658
a(I63
I895
tp659
a(I936
I2005
tp660
a(I663
I85
tp661
a(I770
I1778
tp662
a(I520
I2005
tp663
a(I260
I-10
tp664
a(I0
I-10
tp665
a(I632
I1355
tp666
a(I811
I1246
tp667
a(I260
I2005
tp668
a(I468
I-10
tp669
a(I130
I429
tp670
a(I375
I1894
tp671
a(I0
I2005
tp672
a(I934
I1356
tp673
a(I384
I429
tp674
a(I156
I2005
tp675
a(I624
I2004
tp676
a(I104
I-10
tp677
a(I988
I2005
tp678
a(I854
I1356
tp679
a(I780
I-10
tp680
a(I345
I83
tp681
a(I279
I1894
tp682
a(I780
I-10
tp683
a(I832
I-10
tp684
a(I35
I895
tp685
a(I364
I-10
tp686
a(I942
I1135
tp687
a(I867
I906
tp688
a(I936
I-8
tp689
a(I656
I313
tp690
a(I416
I-10
tp691
a(I416
I-10
tp692
a(I208
I2004
tp693
a(I744
I543
tp694
a(I541
I429
tp695
a(I369
I1778
tp696
a(I591
I85
tp697
a(I515
I903
tp698
a(I520
I-10
tp699
a(I52
I-8
tp700
a(I871
I313
tp701
a(I988
I2005
tp702
a(I624
I2004
tp703
a(I20
I313
tp704
a(I468
I2005
tp705
a(I978
I906
tp706
a.(lp1
(I500
I1794
tp2
a(I144
I1682
tp3
a(I596
I328
tp4
a(I950
I802
tp5
a(I243
I326
tp6
a(I832
I1792
tp7
a(I158
I678
tp8
a(I931
I1259
tp9
a.(lp1
(I551
I627
tp2
a(I47
I1318
tp3
a(I93
I1206
tp4
a(I584
I162
tp5
a(I36
I971
tp6
a(I60
I1740
tp7
a(I433
I385
tp8
a(I361
I499
tp9
a(I262
I1733
tp10
a(I193
I967
tp11
a(I895
I1973
tp12
a(I426
I273
tp13
a(I92
I1635
tp14
a(I142
I37
tp15
a(I210
I626
tp16
a(I107
I1319
tp17
a(I537
I1210
tp18
a(I825
I501
tp19
a(I586
I496
tp20
a(I769
I1207
tp21
a(I839
I626
tp22
a(I882
I384
tp23
a(I404
I1208
tp24
a(I765
I384
tp25
a(I119
I271
tp26
a(I631
I1968
tp27
a(I793
I164
tp28
a(I87
I1858
tp29
a(I298
I1972
tp30
a(I409
I1855
tp31
a(I233
I1207
tp32
a(I777
I1433
tp33
a(I537
I386
tp34
a(I783
I1743
tp35
a(I512
I1737
tp36
a(I667
I386
tp37
a(I800
I1097
tp38
a(I115
I505
tp39
a(I683
I159
tp40
a(I151
I157
tp41
a(I526
I1853
tp42
a.(lp1
(I27
I1486
tp2
a(I433
I1937
tp3
a(I624
I1065
tp4
a(I910
I1066
tp5
a(I519
I1178
tp6
a(I217
I476
tp7
a(I45
I1711
tp8
a(I535
I128
tp9
a(I517
I948
tp10
a(I136
I361
tp11
a(I286
I245
tp12
a(I268
I711
tp13
a(I962
I592
tp14
a(I550
I1934
tp15
a(I976
I951
tp16
a(I351
I243
tp17
a(I41
I131
tp18
a(I295
I472
tp19
a(I974
I1936
tp20
a(I285
I945
tp21
a(I33
I825
tp22
a(I59
I1175
tp23
a(I871
I837
tp24
a(I44
I474
tp25
a(I112
I1060
tp26
a(I303
I1404
tp27
a(I929
I1825
tp28
a(I425
I132
tp29
a(I45
I1711
tp30
a(I974
I1401
tp31
a(I634
I1400
tp32
a(I739
I1402
tp33
a(I244
I1937
tp34
a(I131
I1936
tp35
a(I725
I1936
tp36
a(I133
I1600
tp37
a(I858
I1289
tp38
a(I681
I245
tp39
a.(I355
I388
t.S'data/levels\\server-room.lvl'
p1
.