S'ServerRoom'
p1
.(I1000
I2000
tp1
.(I35
I1963
tp1
.(lp1
(I-10
I736
tp2
a(I1010
I92
tp3
a(I1010
I1242
tp4
a(I-10
I1012
tp5
a(I1010
I1564
tp6
a(I1010
I1886
tp7
a(I-10
I1288
tp8
a(I-10
I552
tp9
a(I161
I1643
tp10
a(I-10
I874
tp11
a(I-10
I0
tp12
a(I473
I172
tp13
a(I-10
I1242
tp14
a(I1010
I230
tp15
a(I1010
I1058
tp16
a(I-10
I138
tp17
a(I-10
I782
tp18
a(I1010
I1656
tp19
a(I1010
I0
tp20
a(I1010
I1656
tp21
a(I1010
I966
tp22
a(I1010
I1472
tp23
a(I1010
I920
tp24
a(I-10
I506
tp25
a(I-10
I184
tp26
a(I-10
I1150
tp27
a(I-10
I782
tp28
a(I1010
I92
tp29
a(I644
I1815
tp30
a(I644
I1805
tp31
a(I1010
I276
tp32
a(I-10
I1518
tp33
a(I1010
I276
tp34
a(I-10
I46
tp35
a(I1010
I1104
tp36
a(I1010
I138
tp37
a(I-10
I276
tp38
a(I-10
I874
tp39
a(I-10
I1334
tp40
a(I1010
I1564
tp41
a(I1010
I230
tp42
a(I1010
I230
tp43
a(I-10
I1886
tp44
a(I322
I922
tp45
a(I483
I839
tp46
a(I-10
I1932
tp47
a(I1010
I1104
tp48
a(I-10
I1380
tp49
a(I1010
I1242
tp50
a(I1010
I184
tp51
a(I1010
I1380
tp52
a(I-10
I690
tp53
a(I-10
I506
tp54
a(I-10
I1610
tp55
a(I1010
I92
tp56
a(I-10
I506
tp57
a(I483
I1219
tp58
a(I-10
I874
tp59
a(I322
I809
tp60
a(I789
I1982
tp61
a(I322
I836
tp62
a(I-10
I644
tp63
a(I-10
I690
tp64
a(I1010
I460
tp65
a(I338
I1833
tp66
a(I1010
I1380
tp67
a(I-10
I1334
tp68
a(I1010
I644
tp69
a(I-10
I1104
tp70
a(I473
I109
tp71
a(I165
I1039
tp72
a(I1010
I1472
tp73
a(I-10
I782
tp74
a(I-10
I1978
tp75
a(I-10
I1058
tp76
a(I1010
I1840
tp77
a(I1010
I1334
tp78
a(I1010
I1610
tp79
a(I-10
I828
tp80
a(I1010
I0
tp81
a(I-10
I644
tp82
a(I651
I1035
tp83
a(I1010
I230
tp84
a(I1010
I368
tp85
a(I-10
I782
tp86
a(I1010
I1150
tp87
a(I-10
I1748
tp88
a(I-10
I0
tp89
a(I-10
I1334
tp90
a(I-10
I414
tp91
a(I1010
I552
tp92
a(I1010
I1564
tp93
a(I-10
I736
tp94
a(I1010
I368
tp95
a(I1010
I1794
tp96
a(I1010
I828
tp97
a(I1010
I1104
tp98
a(I-10
I414
tp99
a(I1010
I1610
tp100
a(I174
I356
tp101
a(I483
I953
tp102
a(I1010
I1564
tp103
a(I1010
I46
tp104
a(I1010
I138
tp105
a(I-10
I1104
tp106
a(I473
I148
tp107
a(I-10
I92
tp108
a(I1010
I1058
tp109
a(I-10
I460
tp110
a(I1010
I1610
tp111
a(I1010
I1288
tp112
a(I-10
I0
tp113
a(I650
I958
tp114
a(I-10
I414
tp115
a(I1010
I1886
tp116
a(I-10
I1472
tp117
a(I1010
I1472
tp118
a(I-10
I322
tp119
a(I322
I867
tp120
a(I-10
I1472
tp121
a(I1010
I736
tp122
a(I-10
I414
tp123
a(I-10
I1380
tp124
a(I1010
I644
tp125
a(I1010
I1150
tp126
a(I1010
I1012
tp127
a(I1010
I1104
tp128
a(I1010
I230
tp129
a(I714
I263
tp130
a(I-10
I1334
tp131
a(I1010
I1932
tp132
a(I-10
I1840
tp133
a(I406
I1415
tp134
a(I-10
I0
tp135
a(I847
I874
tp136
a(I-10
I1840
tp137
a(I-10
I1518
tp138
a(I319
I342
tp139
a(I1010
I598
tp140
a(I-10
I230
tp141
a(I1010
I1472
tp142
a(I1010
I368
tp143
a(I1010
I690
tp144
a(I-10
I782
tp145
a(I1010
I1150
tp146
a(I1010
I46
tp147
a(I1010
I1978
tp148
a(I1010
I0
tp149
a(I1010
I1012
tp150
a(I-10
I1426
tp151
a(I1010
I1288
tp152
a(I-10
I736
tp153
a(I322
I953
tp154
a(I1010
I1058
tp155
a(I1010
I920
tp156
a(I-10
I1472
tp157
a(I830
I1286
tp158
a(I1010
I414
tp159
a(I-10
I322
tp160
a(I-10
I1886
tp161
a(I1010
I1932
tp162
a(I-10
I138
tp163
a(I263
I456
tp164
a(I-10
I184
tp165
a(I1010
I1334
tp166
a(I-10
I1886
tp167
a(I-10
I368
tp168
a(I1010
I1426
tp169
a(I1010
I276
tp170
a(I1010
I1564
tp171
a(I-10
I322
tp172
a(I1010
I644
tp173
a(I650
I990
tp174
a(I473
I131
tp175
a(I-10
I1472
tp176
a(I1010
I1978
tp177
a(I1010
I1886
tp178
a(I650
I921
tp179
a(I1010
I1794
tp180
a(I-10
I92
tp181
a(I-10
I874
tp182
a(I1010
I1196
tp183
a(I1010
I460
tp184
a(I-10
I782
tp185
a(I-10
I1702
tp186
a(I-10
I1886
tp187
a(I1010
I782
tp188
a(I1010
I1748
tp189
a(I714
I226
tp190
a(I-10
I46
tp191
a(I-10
I1150
tp192
a(I1010
I1518
tp193
a(I-10
I1978
tp194
a(I-10
I1196
tp195
a(I1010
I874
tp196
a(I-10
I1012
tp197
a(I-10
I1058
tp198
a(I1010
I92
tp199
a(I1010
I1196
tp200
a(I-10
I690
tp201
a(I319
I401
tp202
a(I1010
I276
tp203
a(I1010
I1932
tp204
a(I1010
I920
tp205
a(I1010
I966
tp206
a(I-10
I322
tp207
a(I1010
I1334
tp208
a(I-10
I1426
tp209
a(I-10
I368
tp210
a(I-10
I920
tp211
a(I473
I55
tp212
a(I-10
I1564
tp213
a(I1010
I368
tp214
a(I-10
I1978
tp215
a(I1010
I1978
tp216
a(I-10
I1058
tp217
a(I318
I241
tp218
a(I-10
I1978
tp219
a(I-10
I828
tp220
a(I-10
I1794
tp221
a(I1010
I874
tp222
a(I-10
I322
tp223
a(I1010
I184
tp224
a(I1010
I736
tp225
a(I483
I1043
tp226
a(I1010
I368
tp227
a(I1010
I920
tp228
a(I-10
I1150
tp229
a(I1010
I1748
tp230
a(I1010
I644
tp231
a(I-10
I276
tp232
a(I1010
I1334
tp233
a(I1010
I1840
tp234
a(I1010
I1518
tp235
a(I-10
I46
tp236
a(I-10
I1610
tp237
a(I1010
I1518
tp238
a(I1010
I736
tp239
a(I644
I1841
tp240
a(I1010
I1012
tp241
a(I-10
I276
tp242
a(I1010
I138
tp243
a(I263
I516
tp244
a(I651
I1108
tp245
a(I506
I1980
tp246
a(I-10
I506
tp247
a(I-10
I460
tp248
a(I-10
I690
tp249
a(I-10
I1012
tp250
a(I1010
I1380
tp251
a(I1010
I782
tp252
a(I-10
I1426
tp253
a(I1010
I1242
tp254
a(I-10
I1334
tp255
a(I1010
I1288
tp256
a(I-10
I1932
tp257
a(I-10
I1748
tp258
a(I1010
I184
tp259
a(I1010
I1932
tp260
a(I1010
I874
tp261
a(I338
I1867
tp262
a(I1010
I1794
tp263
a(I1010
I1380
tp264
a(I-10
I460
tp265
a(I-10
I184
tp266
a(I-10
I1426
tp267
a(I1010
I782
tp268
a(I-10
I1104
tp269
a(I847
I838
tp270
a(I1010
I506
tp271
a(I-10
I966
tp272
a(I-10
I1656
tp273
a(I-10
I644
tp274
a(I697
I1383
tp275
a(I1010
I1978
tp276
a(I1010
I1012
tp277
a(I-10
I0
tp278
a(I-10
I1426
tp279
a(I-10
I1794
tp280
a(I1010
I1426
tp281
a(I-10
I1380
tp282
a(I1010
I552
tp283
a(I1010
I506
tp284
a(I1010
I1288
tp285
a(I483
I1153
tp286
a(I-10
I1748
tp287
a(I-10
I1012
tp288
a(I1010
I736
tp289
a(I-10
I368
tp290
a(I-10
I736
tp291
a(I-10
I1288
tp292
a(I-10
I1104
tp293
a(I161
I1595
tp294
a(I-10
I230
tp295
a(I-10
I322
tp296
a(I1010
I506
tp297
a(I-10
I1380
tp298
a(I-10
I1058
tp299
a(I1010
I828
tp300
a(I1010
I1104
tp301
a(I1010
I92
tp302
a(I-10
I46
tp303
a(I1010
I1932
tp304
a(I1010
I874
tp305
a(I-10
I1794
tp306
a(I-10
I690
tp307
a(I-10
I1794
tp308
a(I1010
I598
tp309
a(I1010
I322
tp310
a(I-10
I1748
tp311
a(I1010
I1472
tp312
a(I318
I227
tp313
a(I174
I401
tp314
a(I1010
I414
tp315
a(I1010
I598
tp316
a(I1010
I736
tp317
a(I162
I1469
tp318
a(I1010
I1656
tp319
a(I-10
I598
tp320
a(I-10
I138
tp321
a(I406
I1383
tp322
a(I-10
I1794
tp323
a(I-10
I966
tp324
a(I-10
I1702
tp325
a(I1010
I644
tp326
a(I-10
I1978
tp327
a(I-10
I690
tp328
a(I-10
I598
tp329
a(I-10
I1242
tp330
a(I1010
I966
tp331
a(I1010
I644
tp332
a(I1010
I1012
tp333
a(I1010
I322
tp334
a(I-10
I1518
tp335
a(I1010
I1748
tp336
a(I-10
I874
tp337
a(I-10
I368
tp338
a(I318
I263
tp339
a(I1010
I46
tp340
a(I321
I711
tp341
a(I-10
I1058
tp342
a(I202
I1921
tp343
a(I-10
I92
tp344
a(I1010
I1334
tp345
a(I1010
I920
tp346
a(I1010
I322
tp347
a(I506
I1920
tp348
a(I-10
I1472
tp349
a(I1010
I368
tp350
a(I-10
I1288
tp351
a(I-10
I276
tp352
a(I-10
I598
tp353
a(I-10
I1242
tp354
a(I202
I1981
tp355
a(I1010
I1702
tp356
a(I-10
I552
tp357
a(I-10
I920
tp358
a(I1010
I1196
tp359
a(I1010
I966
tp360
a(I1010
I414
tp361
a(I-10
I1012
tp362
a(I-10
I230
tp363
a(I1010
I1702
tp364
a(I1010
I1380
tp365
a(I1010
I414
tp366
a(I-10
I322
tp367
a(I483
I818
tp368
a(I483
I1074
tp369
a(I-10
I1978
tp370
a(I-10
I0
tp371
a(I-10
I368
tp372
a(I1010
I1150
tp373
a(I-10
I1058
tp374
a(I1010
I782
tp375
a(I1010
I1150
tp376
a(I-10
I1518
tp377
a(I1010
I1058
tp378
a(I322
I986
tp379
a(I789
I1921
tp380
a(I-10
I920
tp381
a(I-10
I1748
tp382
a(I-10
I1656
tp383
a(I1010
I874
tp384
a(I1010
I460
tp385
a(I161
I1619
tp386
a(I1010
I1840
tp387
a(I-10
I1702
tp388
a(I1010
I782
tp389
a(I-10
I966
tp390
a(I1010
I1748
tp391
a(I-10
I828
tp392
a(I-10
I138
tp393
a(I-10
I1334
tp394
a(I1010
I1702
tp395
a(I321
I752
tp396
a(I-10
I1702
tp397
a(I1010
I1518
tp398
a(I-10
I1932
tp399
a(I1010
I506
tp400
a(I1010
I1196
tp401
a(I1010
I276
tp402
a(I-10
I230
tp403
a(I-10
I1242
tp404
a(I1010
I460
tp405
a(I-10
I92
tp406
a(I1010
I1794
tp407
a(I-10
I1794
tp408
a(I651
I1069
tp409
a(I-10
I828
tp410
a(I-10
I414
tp411
a(I202
I1937
tp412
a(I-10
I1564
tp413
a(I-10
I1656
tp414
a(I-10
I1886
tp415
a(I1010
I184
tp416
a(I1010
I920
tp417
a(I1010
I414
tp418
a(I-10
I1702
tp419
a(I1010
I276
tp420
a(I-10
I1564
tp421
a(I-10
I414
tp422
a(I1010
I1886
tp423
a(I-10
I1150
tp424
a(I-10
I644
tp425
a(I-10
I1242
tp426
a(I1010
I1288
tp427
a(I847
I941
tp428
a(I321
I691
tp429
a(I-10
I1610
tp430
a(I830
I1273
tp431
a(I-10
I184
tp432
a(I1010
I46
tp433
a(I1010
I1426
tp434
a(I-10
I1196
tp435
a(I1010
I1978
tp436
a(I-10
I966
tp437
a(I1010
I1656
tp438
a(I-10
I782
tp439
a(I-10
I1426
tp440
a(I1010
I1380
tp441
a(I-10
I1150
tp442
a(I1010
I138
tp443
a(I-10
I1702
tp444
a(I789
I1953
tp445
a(I-10
I1518
tp446
a(I-10
I828
tp447
a(I-10
I414
tp448
a(I-10
I184
tp449
a(I1010
I644
tp450
a(I1010
I1242
tp451
a(I1010
I322
tp452
a(I-10
I736
tp453
a(I1010
I552
tp454
a(I876
I129
tp455
a(I1010
I1058
tp456
a(I1010
I1196
tp457
a(I-10
I644
tp458
a(I-10
I1196
tp459
a(I-10
I0
tp460
a(I-10
I920
tp461
a(I-10
I184
tp462
a(I1010
I1794
tp463
a(I-10
I276
tp464
a(I483
I989
tp465
a(I1010
I1886
tp466
a(I-10
I598
tp467
a(I483
I921
tp468
a(I-10
I1058
tp469
a(I1010
I1242
tp470
a(I1010
I1748
tp471
a(I1010
I828
tp472
a(I-10
I1748
tp473
a(I1010
I1610
tp474
a(I-10
I1288
tp475
a(I1010
I1518
tp476
a(I-10
I1610
tp477
a(I1010
I322
tp478
a(I483
I1179
tp479
a(I1010
I966
tp480
a(I1010
I1840
tp481
a(I1010
I1886
tp482
a(I1010
I1610
tp483
a(I1010
I1702
tp484
a(I1010
I828
tp485
a(I1010
I1288
tp486
a(I-10
I1656
tp487
a(I-10
I1840
tp488
a(I1010
I0
tp489
a(I876
I112
tp490
a(I1010
I184
tp491
a(I-10
I1150
tp492
a(I1010
I598
tp493
a(I-10
I1380
tp494
a(I714
I284
tp495
a(I1010
I1334
tp496
a(I1010
I552
tp497
a(I-10
I1288
tp498
a(I1010
I1058
tp499
a(I1010
I46
tp500
a(I1010
I1748
tp501
a(I1010
I690
tp502
a(I1010
I1978
tp503
a(I-10
I460
tp504
a(I-10
I1150
tp505
a(I1010
I460
tp506
a(I-10
I460
tp507
a(I1010
I138
tp508
a(I1010
I506
tp509
a(I1010
I598
tp510
a(I1010
I874
tp511
a(I1010
I598
tp512
a(I1010
I230
tp513
a(I1010
I1702
tp514
a(I1010
I1104
tp515
a(I-10
I1932
tp516
a(I506
I1960
tp517
a(I-10
I506
tp518
a(I1010
I1702
tp519
a(I-10
I1104
tp520
a(I1010
I1012
tp521
a(I1010
I1242
tp522
a(I317
I111
tp523
a(I1010
I598
tp524
a(I-10
I1196
tp525
a(I1010
I874
tp526
a(I318
I285
tp527
a(I1010
I322
tp528
a(I-10
I920
tp529
a(I1010
I1196
tp530
a(I1010
I1426
tp531
a(I830
I1328
tp532
a(I1010
I552
tp533
a(I1010
I1610
tp534
a(I-10
I1932
tp535
a(I-10
I1564
tp536
a(I1010
I1656
tp537
a(I-10
I1702
tp538
a(I-10
I552
tp539
a(I847
I993
tp540
a(I-10
I46
tp541
a(I1010
I1104
tp542
a(I317
I145
tp543
a(I-10
I1334
tp544
a(I1010
I1840
tp545
a(I483
I879
tp546
a(I-10
I1840
tp547
a(I-10
I598
tp548
a(I-10
I1656
tp549
a(I-10
I1104
tp550
a(I-10
I1380
tp551
a(I-10
I1610
tp552
a(I-10
I230
tp553
a(I1010
I1426
tp554
a(I165
I1071
tp555
a(I263
I474
tp556
a(I-10
I1564
tp557
a(I-10
I1012
tp558
a(I1010
I1886
tp559
a(I1010
I230
tp560
a(I-10
I46
tp561
a(I-10
I1656
tp562
a(I-10
I598
tp563
a(I-10
I1288
tp564
a(I1010
I0
tp565
a(I161
I1582
tp566
a(I1010
I368
tp567
a(I1010
I1518
tp568
a(I-10
I1840
tp569
a(I-10
I460
tp570
a(I1010
I414
tp571
a(I-10
I1610
tp572
a(I-10
I506
tp573
a(I-10
I1518
tp574
a(I1010
I138
tp575
a(I1010
I782
tp576
a(I-10
I460
tp577
a(I1010
I1702
tp578
a(I1010
I1380
tp579
a(I-10
I230
tp580
a(I-10
I92
tp581
a(I1010
I460
tp582
a(I-10
I1978
tp583
a(I1010
I690
tp584
a(I1010
I1012
tp585
a(I1010
I1840
tp586
a(I-10
I736
tp587
a(I697
I1442
tp588
a(I-10
I1840
tp589
a(I1010
I184
tp590
a(I-10
I1242
tp591
a(I-10
I1840
tp592
a(I876
I172
tp593
a(I1010
I46
tp594
a(I-10
I598
tp595
a(I1010
I828
tp596
a(I-10
I92
tp597
a(I1010
I184
tp598
a(I1010
I828
tp599
a(I1010
I1426
tp600
a(I1010
I1426
tp601
a(I697
I1423
tp602
a(I-10
I1380
tp603
a(I-10
I552
tp604
a(I1010
I736
tp605
a(I1010
I414
tp606
a(I1010
I1656
tp607
a(I1010
I1196
tp608
a(I-10
I644
tp609
a(I714
I242
tp610
a(I1010
I552
tp611
a(I1010
I322
tp612
a(I1010
I0
tp613
a(I1010
I690
tp614
a(I1010
I1610
tp615
a(I1010
I1978
tp616
a(I1010
I0
tp617
a(I-10
I138
tp618
a(I-10
I736
tp619
a(I1010
I1564
tp620
a(I-10
I1242
tp621
a(I847
I916
tp622
a(I1010
I460
tp623
a(I1010
I1748
tp624
a(I1010
I1288
tp625
a(I1010
I92
tp626
a(I1010
I1794
tp627
a(I1010
I1840
tp628
a(I-10
I1288
tp629
a(I1010
I920
tp630
a(I1010
I1932
tp631
a(I-10
I1472
tp632
a(I-10
I552
tp633
a(I-10
I230
tp634
a(I-10
I92
tp635
a(I-10
I920
tp636
a(I-10
I1472
tp637
a(I338
I1805
tp638
a(I-10
I368
tp639
a(I-10
I552
tp640
a(I1010
I276
tp641
a(I1010
I736
tp642
a(I-10
I828
tp643
a(I-10
I966
tp644
a(I174
I341
tp645
a(I1010
I92
tp646
a(I-10
I1012
tp647
a(I1010
I1564
tp648
a(I-10
I920
tp649
a(I473
I20
tp650
a(I1010
I828
tp651
a(I-10
I644
tp652
a(I-10
I828
tp653
a(I-10
I1196
tp654
a(I1010
I1656
tp655
a(I-10
I552
tp656
a(I-10
I506
tp657
a(I-10
I276
tp658
a(I-10
I46
tp659
a(I1010
I1472
tp660
a(I406
I1443
tp661
a(I483
I1109
tp662
a(I1010
I552
tp663
a(I-10
I1564
tp664
a(I1010
I690
tp665
a(I1010
I1242
tp666
a(I-10
I1564
tp667
a(I-10
I1518
tp668
a(I-10
I1886
tp669
a(I1010
I46
tp670
a(I-10
I1196
tp671
a(I847
I807
tp672
a(I319
I357
tp673
a(I1010
I138
tp674
a(I1010
I1794
tp675
a(I-10
I1932
tp676
a(I-10
I276
tp677
a(I-10
I1932
tp678
a(I-10
I1656
tp679
a(I-10
I1886
tp680
a(I1010
I506
tp681
a(I-10
I874
tp682
a(I-10
I184
tp683
a(I1010
I966
tp684
a(I1010
I1334
tp685
a(I317
I173
tp686
a(I-10
I1610
tp687
a(I1010
I782
tp688
a(I1010
I690
tp689
a(I-10
I1196
tp690
a(I1010
I1472
tp691
a(I1010
I1058
tp692
a(I-10
I1794
tp693
a(I1010
I690
tp694
a(I847
I963
tp695
a(I-10
I874
tp696
a(I1010
I966
tp697
a(I-10
I1426
tp698
a(I162
I1528
tp699
a(I1010
I1150
tp700
a(I-10
I966
tp701
a(I1010
I1932
tp702
a(I1010
I506
tp703
a(I1010
I1150
tp704
a(I-10
I368
tp705
a(I-10
I690
tp706
a(I162
I1499
tp707
a(I-10
I966
tp708
a(I-10
I1748
tp709
a(I644
I1867
tp710
a(I-10
I138
tp711
a(I1010
I1518
tp712
a(I165
I1102
tp713
a(I-10
I138
tp714
a(I-10
I1104
tp715
a.(lp1
(I670
I429
tp2
a(I156
I2005
tp3
a(I37
I1894
tp4
a(I598
I1135
tp5
a(I68
I1778
tp6
a(I624
I-10
tp7
a(I269
I313
tp8
a(I24
I543
tp9
a(I227
I1012
tp10
a(I504
I1246
tp11
a(I104
I-10
tp12
a(I140
I1669
tp13
a(I849
I1778
tp14
a(I312
I2005
tp15
a(I343
I200
tp16
a(I595
I903
tp17
a(I830
I664
tp18
a(I156
I2005
tp19
a(I67
I1443
tp20
a(I458
I429
tp21
a(I423
I83
tp22
a(I768
I429
tp23
a(I838
I1470
tp24
a(I142
I1443
tp25
a(I988
I2005
tp26
a(I660
I1470
tp27
a(I488
I664
tp28
a(I130
I429
tp29
a(I468
I2005
tp30
a(I520
I-10
tp31
a(I781
I664
tp32
a(I312
I2005
tp33
a(I936
I2005
tp34
a(I104
I895
tp35
a(I535
I1016
tp36
a(I260
I2005
tp37
a(I974
I543
tp38
a(I622
I790
tp39
a(I728
I2005
tp40
a(I283
I83
tp41
a(I943
I313
tp42
a(I65
I1012
tp43
a(I468
I-10
tp44
a(I684
I1894
tp45
a(I1
I1669
tp46
a(I688
I200
tp47
a(I538
I1894
tp48
a(I208
I2005
tp49
a(I262
I895
tp50
a(I988
I2005
tp51
a(I152
I1355
tp52
a(I468
I2005
tp53
a(I572
I2005
tp54
a(I52
I2005
tp55
a(I624
I2005
tp56
a(I903
I906
tp57
a(I780
I2005
tp58
a(I508
I1470
tp59
a(I162
I664
tp60
a(I52
I-10
tp61
a(I724
I790
tp62
a(I114
I1778
tp63
a(I416
I2005
tp64
a(I208
I-10
tp65
a(I580
I1470
tp66
a(I55
I1246
tp67
a(I884
I-10
tp68
a(I811
I1246
tp69
a(I312
I-10
tp70
a(I884
I-10
tp71
a(I388
I1246
tp72
a(I627
I1246
tp73
a(I962
I789
tp74
a(I260
I-10
tp75
a(I273
I1246
tp76
a(I52
I-10
tp77
a(I556
I313
tp78
a(I646
I200
tp79
a(I473
I200
tp80
a(I586
I1016
tp81
a(I676
I-10
tp82
a(I728
I-10
tp83
a(I780
I-10
tp84
a(I104
I-10
tp85
a(I312
I-10
tp86
a(I520
I-10
tp87
a(I817
I1778
tp88
a(I426
I313
tp89
a(I710
I1470
tp90
a(I867
I1021
tp91
a(I680
I664
tp92
a(I832
I-10
tp93
a(I416
I-10
tp94
a(I179
I1894
tp95
a(I62
I1129
tp96
a(I520
I-10
tp97
a(I798
I1135
tp98
a(I537
I664
tp99
a(I208
I-10
tp100
a(I146
I1012
tp101
a(I988
I2005
tp102
a(I72
I780
tp103
a(I190
I1778
tp104
a(I302
I895
tp105
a(I780
I-10
tp106
a(I914
I313
tp107
a(I104
I2005
tp108
a(I733
I1894
tp109
a(I416
I-10
tp110
a(I241
I1778
tp111
a(I572
I-10
tp112
a(I572
I-10
tp113
a(I779
I1355
tp114
a(I104
I2005
tp115
a(I936
I2005
tp116
a(I567
I1778
tp117
a(I923
I543
tp118
a(I0
I-10
tp119
a(I260
I2005
tp120
a(I312
I1246
tp121
a(I810
I1355
tp122
a(I832
I-10
tp123
a(I37
I664
tp124
a(I936
I-10
tp125
a(I676
I2005
tp126
a(I716
I200
tp127
a(I842
I429
tp128
a(I208
I2005
tp129
a(I260
I-10
tp130
a(I633
I1778
tp131
a(I676
I-10
tp132
a(I988
I2005
tp133
a(I345
I429
tp134
a(I936
I-10
tp135
a(I345
I313
tp136
a(I960
I664
tp137
a(I631
I1135
tp138
a(I21
I1778
tp139
a(I416
I2005
tp140
a(I261
I664
tp141
a(I168
I199
tp142
a(I369
I1778
tp143
a(I0
I-10
tp144
a(I942
I1135
tp145
a(I758
I1246
tp146
a(I52
I-10
tp147
a(I52
I-10
tp148
a(I913
I1021
tp149
a(I884
I2005
tp150
a(I936
I2005
tp151
a(I630
I1016
tp152
a(I676
I-10
tp153
a(I780
I2005
tp154
a(I757
I1135
tp155
a(I833
I313
tp156
a(I391
I313
tp157
a(I456
I1246
tp158
a(I208
I2005
tp159
a(I96
I1669
tp160
a(I312
I-10
tp161
a(I462
I543
tp162
a(I676
I-10
tp163
a(I832
I-10
tp164
a(I0
I-10
tp165
a(I633
I1894
tp166
a(I43
I1012
tp167
a(I930
I906
tp168
a(I42
I83
tp169
a(I978
I906
tp170
a(I695
I790
tp171
a(I346
I1246
tp172
a(I300
I780
tp173
a(I146
I1129
tp174
a(I832
I2005
tp175
a(I676
I2005
tp176
a(I0
I1894
tp177
a(I92
I313
tp178
a(I200
I199
tp179
a(I760
I790
tp180
a(I737
I1355
tp181
a(I922
I789
tp182
a(I184
I895
tp183
a(I297
I429
tp184
a(I780
I2005
tp185
a(I588
I429
tp186
a(I541
I429
tp187
a(I744
I543
tp188
a(I213
I1355
tp189
a(I503
I790
tp190
a(I624
I-10
tp191
a(I19
I1246
tp192
a(I259
I1012
tp193
a(I619
I903
tp194
a(I411
I1778
tp195
a(I676
I-10
tp196
a(I427
I1470
tp197
a(I977
I1470
tp198
a(I156
I-10
tp199
a(I713
I429
tp200
a(I966
I1135
tp201
a(I887
I1356
tp202
a(I104
I2005
tp203
a(I988
I-10
tp204
a(I505
I200
tp205
a(I810
I429
tp206
a(I364
I2005
tp207
a(I936
I2005
tp208
a(I52
I2005
tp209
a(I395
I664
tp210
a(I156
I2005
tp211
a(I113
I1012
tp212
a(I728
I2005
tp213
a(I572
I2005
tp214
a(I0
I2005
tp215
a(I624
I-10
tp216
a(I552
I1470
tp217
a(I0
I2005
tp218
a(I884
I2005
tp219
a(I20
I313
tp220
a(I260
I2005
tp221
a(I16
I199
tp222
a(I130
I1894
tp223
a(I217
I313
tp224
a(I122
I83
tp225
a(I40
I1555
tp226
a(I531
I790
tp227
a(I71
I664
tp228
a(I103
I1355
tp229
a(I624
I-10
tp230
a(I534
I1246
tp231
a(I364
I-10
tp232
a(I721
I1246
tp233
a(I499
I1778
tp234
a(I298
I200
tp235
a(I473
I83
tp236
a(I936
I1891
tp237
a(I782
I1894
tp238
a(I321
I543
tp239
a(I728
I2005
tp240
a(I770
I1778
tp241
a(I91
I1246
tp242
a(I299
I313
tp243
a(I982
I664
tp244
a(I663
I85
tp245
a(I520
I2005
tp246
a(I198
I780
tp247
a(I572
I2005
tp248
a(I416
I2005
tp249
a(I988
I-10
tp250
a(I906
I1135
tp251
a(I354
I664
tp252
a(I208
I2005
tp253
a(I905
I1470
tp254
a(I25
I1443
tp255
a(I260
I429
tp256
a(I988
I-10
tp257
a(I416
I-10
tp258
a(I52
I-10
tp259
a(I780
I2005
tp260
a(I364
I-10
tp261
a(I158
I83
tp262
a(I156
I-10
tp263
a(I468
I-10
tp264
a(I676
I-10
tp265
a(I936
I-10
tp266
a(I270
I543
tp267
a(I96
I543
tp268
a(I0
I2005
tp269
a(I855
I200
tp270
a(I312
I2005
tp271
a(I572
I2005
tp272
a(I416
I2005
tp273
a(I133
I1555
tp274
a(I725
I429
tp275
a(I416
I-10
tp276
a(I63
I895
tp277
a(I301
I1355
tp278
a(I780
I-10
tp279
a(I156
I2005
tp280
a(I208
I2005
tp281
a(I260
I-10
tp282
a(I988
I2005
tp283
a(I961
I1021
tp284
a(I704
I313
tp285
a(I0
I2005
tp286
a(I19
I664
tp287
a(I936
I-10
tp288
a(I52
I2005
tp289
a(I104
I2005
tp290
a(I21
I1012
tp291
a(I510
I313
tp292
a(I236
I83
tp293
a(I-5
I83
tp294
a(I0
I-10
tp295
a(I832
I-10
tp296
a(I632
I1355
tp297
a(I514
I1135
tp298
a(I0
I-10
tp299
a(I470
I1470
tp300
a(I988
I2005
tp301
a(I872
I1470
tp302
a(I312
I-10
tp303
a(I312
I-10
tp304
a(I884
I2005
tp305
a(I375
I1894
tp306
a(I988
I-10
tp307
a(I572
I-10
tp308
a(I16
I1355
tp309
a(I0
I2005
tp310
a(I35
I895
tp311
a(I364
I2005
tp312
a(I911
I664
tp313
a(I728
I-10
tp314
a(I676
I2005
tp315
a(I871
I313
tp316
a(I802
I85
tp317
a(I572
I-10
tp318
a(I572
I-10
tp319
a(I631
I429
tp320
a(I156
I-10
tp321
a(I860
I1246
tp322
a(I364
I2005
tp323
a(I364
I-10
tp324
a(I728
I-10
tp325
a(I229
I1894
tp326
a(I626
I85
tp327
a(I43
I1355
tp328
a(I884
I2005
tp329
a(I52
I-10
tp330
a(I988
I-10
tp331
a(I419
I429
tp332
a(I701
I85
tp333
a(I936
I-10
tp334
a(I727
I664
tp335
a(I345
I83
tp336
a(I884
I-10
tp337
a(I854
I1356
tp338
a(I312
I-10
tp339
a(I676
I2005
tp340
a(I572
I2005
tp341
a(I520
I2005
tp342
a(I468
I-10
tp343
a(I884
I2005
tp344
a(I197
I83
tp345
a(I780
I-10
tp346
a(I156
I2005
tp347
a(I978
I1891
tp348
a(I48
I429
tp349
a(I416
I-10
tp350
a(I121
I664
tp351
a(I392
I1355
tp352
a(I928
I1246
tp353
a(I936
I2005
tp354
a(I0
I2005
tp355
a(I312
I2005
tp356
a(I468
I-10
tp357
a(I104
I2005
tp358
a(I879
I543
tp359
a(I139
I543
tp360
a(I463
I1894
tp361
a(I550
I85
tp362
a(I46
I199
tp363
a(I184
I313
tp364
a(I520
I2005
tp365
a(I624
I-10
tp366
a(I126
I1443
tp367
a(I194
I1012
tp368
a(I988
I-10
tp369
a(I52
I-10
tp370
a(I312
I2005
tp371
a(I718
I1355
tp372
a(I629
I1470
tp373
a(I425
I1894
tp374
a(I683
I1355
tp375
a(I380
I200
tp376
a(I468
I2005
tp377
a(I260
I2005
tp378
a(I423
I200
tp379
a(I944
I789
tp380
a(I364
I-10
tp381
a(I520
I-10
tp382
a(I748
I200
tp383
a(I552
I543
tp384
a(I148
I895
tp385
a(I884
I-10
tp386
a(I312
I2005
tp387
a(I624
I2005
tp388
a(I468
I-10
tp389
a(I624
I-10
tp390
a(I680
I1135
tp391
a(I734
I664
tp392
a(I171
I429
tp393
a(I728
I-10
tp394
a(I936
I-10
tp395
a(I490
I1894
tp396
a(I452
I1778
tp397
a(I572
I-10
tp398
a(I668
I790
tp399
a(I728
I2005
tp400
a(I981
I313
tp401
a(I563
I1016
tp402
a(I220
I543
tp403
a(I104
I-10
tp404
a(I503
I543
tp405
a(I468
I-10
tp406
a(I723
I1778
tp407
a(I624
I2005
tp408
a(I186
I1246
tp409
a(I676
I2005
tp410
a(I208
I-10
tp411
a(I807
I1470
tp412
a(I416
I2005
tp413
a(I260
I-10
tp414
a(I15
I1555
tp415
a(I125
I1355
tp416
a(I147
I1778
tp417
a(I416
I2005
tp418
a(I853
I85
tp419
a(I717
I1135
tp420
a(I728
I2005
tp421
a(I982
I789
tp422
a(I927
I1470
tp423
a(I415
I543
tp424
a(I391
I83
tp425
a(I877
I429
tp426
a(I868
I664
tp427
a(I260
I-10
tp428
a(I105
I780
tp429
a(I52
I2005
tp430
a(I104
I2005
tp431
a(I0
I-10
tp432
a(I55
I1555
tp433
a(I579
I790
tp434
a(I364
I-10
tp435
a(I884
I2005
tp436
a(I676
I2005
tp437
a(I520
I2005
tp438
a(I779
I1246
tp439
a(I208
I2005
tp440
a(I656
I313
tp441
a(I468
I-10
tp442
a(I728
I2005
tp443
a(I102
I1555
tp444
a(I182
I1355
tp445
a(I503
I1016
tp446
a(I260
I2005
tp447
a(I302
I1012
tp448
a(I585
I1894
tp449
a(I832
I2005
tp450
a(I208
I-10
tp451
a(I575
I313
tp452
a(I468
I2005
tp453
a(I149
I780
tp454
a(I647
I543
tp455
a(I629
I664
tp456
a(I981
I1021
tp457
a(I363
I543
tp458
a(I930
I1778
tp459
a(I289
I1778
tp460
a(I468
I2005
tp461
a(I434
I664
tp462
a(I217
I429
tp463
a(I364
I2005
tp464
a(I572
I2005
tp465
a(I884
I2005
tp466
a(I572
I2005
tp467
a(I786
I790
tp468
a(I94
I199
tp469
a(I52
I2005
tp470
a(I181
I543
tp471
a(I982
I429
tp472
a(I520
I2005
tp473
a(I832
I2005
tp474
a(I572
I-10
tp475
a(I52
I2005
tp476
a(I792
I200
tp477
a(I520
I2005
tp478
a(I520
I-10
tp479
a(I737
I85
tp480
a(I977
I1356
tp481
a(I875
I1135
tp482
a(I624
I-10
tp483
a(I14
I1129
tp484
a(I265
I780
tp485
a(I364
I-10
tp486
a(I819
I200
tp487
a(I515
I903
tp488
a(I468
I2005
tp489
a(I416
I2005
tp490
a(I907
I429
tp491
a(I213
I664
tp492
a(I728
I-10
tp493
a(I156
I-10
tp494
a(I249
I199
tp495
a(I416
I-10
tp496
a(I875
I789
tp497
a(I310
I664
tp498
a(I936
I-10
tp499
a(I832
I-10
tp500
a(I780
I2005
tp501
a(I780
I-10
tp502
a(I80
I1555
tp503
a(I728
I-10
tp504
a(I218
I895
tp505
a(I520
I-10
tp506
a(I832
I2005
tp507
a(I66
I1355
tp508
a(I791
I543
tp509
a(I832
I2005
tp510
a(I832
I-10
tp511
a(I295
I83
tp512
a(I156
I-10
tp513
a(I52
I2005
tp514
a(I58
I313
tp515
a(I564
I1135
tp516
a(I832
I2005
tp517
a(I312
I-10
tp518
a(I771
I85
tp519
a(I86
I1894
tp520
a(I532
I1778
tp521
a(I250
I1355
tp522
a(I941
I429
tp523
a(I208
I-10
tp524
a(I59
I543
tp525
a(I422
I1246
tp526
a(I347
I1355
tp527
a(I832
I2005
tp528
a(I978
I1246
tp529
a(I0
I2005
tp530
a(I584
I1246
tp531
a(I696
I543
tp532
a(I132
I199
tp533
a(I312
I2005
tp534
a(I676
I-10
tp535
a(I936
I2005
tp536
a(I260
I2005
tp537
a(I780
I-10
tp538
a(I364
I-10
tp539
a(I624
I2005
tp540
a(I156
I2005
tp541
a(I906
I1246
tp542
a(I520
I-10
tp543
a(I981
I1135
tp544
a(I134
I1246
tp545
a(I591
I85
tp546
a(I104
I-10
tp547
a(I832
I-10
tp548
a(I260
I-10
tp549
a(I728
I-10
tp550
a(I867
I906
tp551
a(I46
I1778
tp552
a(I156
I2005
tp553
a(I0
I-10
tp554
a(I208
I2005
tp555
a(I836
I1135
tp556
a(I562
I903
tp557
a(I758
I1470
tp558
a(I1
I429
tp559
a(I554
I200
tp560
a(I520
I2005
tp561
a(I519
I85
tp562
a(I66
I199
tp563
a(I988
I2005
tp564
a(I624
I2005
tp565
a(I468
I2005
tp566
a(I583
I664
tp567
a(I819
I790
tp568
a(I138
I313
tp569
a(I333
I1778
tp570
a(I16
I895
tp571
a(I364
I2005
tp572
a(I882
I906
tp573
a(I607
I1778
tp574
a(I142
I1555
tp575
a(I46
I1669
tp576
a(I936
I2005
tp577
a(I109
I1129
tp578
a(I25
I780
tp579
a(I600
I543
tp580
a(I260
I2005
tp581
a(I728
I2005
tp582
a(I780
I-10
tp583
a(I117
I1443
tp584
a(I884
I-10
tp585
a(I884
I-10
tp586
a(I617
I313
tp587
a(I90
I1443
tp588
a(I230
I1246
tp589
a(I780
I2005
tp590
a(I87
I83
tp591
a(I477
I664
tp592
a(I884
I-10
tp593
a(I416
I-10
tp594
a(I208
I-10
tp595
a(I495
I429
tp596
a(I208
I-10
tp597
a(I934
I1356
tp598
a(I624
I2005
tp599
a(I364
I2005
tp600
a(I104
I-10
tp601
a(I978
I1778
tp602
a(I279
I1894
tp603
a(I384
I429
tp604
a(I880
I1778
tp605
a(I104
I-10
tp606
a(I780
I2005
tp607
a(I676
I2005
tp608
a(I156
I-10
tp609
a(I624
I2005
tp610
a(I156
I-10
tp611
a(I674
I1778
tp612
a(I601
I200
tp613
a(I467
I313
tp614
a(I673
I1246
tp615
a(I235
I780
tp616
a(I104
I2005
tp617
a(I104
I-10
tp618
a(I834
I543
tp619
a(I988
I-10
tp620
a(I328
I1894
tp621
a(I364
I2005
tp622
a(I93
I429
tp623
a(I260
I-10
tp624
a(I535
I85
tp625
a(I740
I1246
tp626
a.(lp1
(I158
I678
tp2
a(I950
I802
tp3
a(I500
I1794
tp4
a(I243
I326
tp5
a(I931
I1259
tp6
a(I832
I1792
tp7
a(I144
I1682
tp8
a(I596
I328
tp9
a.(lp1
(I783
I1743
tp2
a(I93
I1206
tp3
a(I800
I1097
tp4
a(I115
I505
tp5
a(I433
I385
tp6
a(I777
I1433
tp7
a(I586
I496
tp8
a(I233
I1207
tp9
a(I193
I967
tp10
a(I298
I1972
tp11
a(I667
I386
tp12
a(I895
I1973
tp13
a(I36
I971
tp14
a(I107
I1319
tp15
a(I765
I384
tp16
a(I151
I157
tp17
a(I793
I164
tp18
a(I825
I501
tp19
a(I47
I1318
tp20
a(I631
I1968
tp21
a(I769
I1207
tp22
a(I551
I627
tp23
a(I537
I1210
tp24
a(I526
I1853
tp25
a(I537
I386
tp26
a(I839
I626
tp27
a(I92
I1635
tp28
a(I142
I37
tp29
a(I361
I499
tp30
a(I60
I1740
tp31
a(I584
I162
tp32
a(I426
I273
tp33
a(I882
I384
tp34
a(I262
I1733
tp35
a(I512
I1737
tp36
a(I119
I271
tp37
a(I210
I626
tp38
a(I404
I1208
tp39
a(I409
I1855
tp40
a(I683
I159
tp41
a(I87
I1858
tp42
a.(lp1
(I739
I1402
tp2
a(I634
I1400
tp3
a(I244
I1937
tp4
a(I725
I1936
tp5
a(I133
I1600
tp6
a(I433
I1937
tp7
a(I217
I476
tp8
a(I974
I1401
tp9
a(I45
I1711
tp10
a(I858
I1289
tp11
a(I131
I1936
tp12
a(I27
I1486
tp13
a(I624
I1065
tp14
a(I910
I1066
tp15
a(I519
I1178
tp16
a(I295
I472
tp17
a(I535
I128
tp18
a(I517
I948
tp19
a(I286
I245
tp20
a(I268
I711
tp21
a(I962
I592
tp22
a(I550
I1934
tp23
a(I976
I951
tp24
a(I351
I243
tp25
a(I41
I131
tp26
a(I112
I1060
tp27
a(I136
I361
tp28
a(I974
I1936
tp29
a(I285
I945
tp30
a(I33
I825
tp31
a(I59
I1175
tp32
a(I871
I837
tp33
a(I44
I474
tp34
a(I681
I245
tp35
a(I303
I1404
tp36
a(I929
I1825
tp37
a(I425
I132
tp38
a(I45
I1711
tp39
a.(I355
I388
t.