S'Basement'
p1
.(I800
I300
tp1
.(I31
I269
tp1
.(lp1
(I-10
I46
tp2
a(I-10
I0
tp3
a(I810
I46
tp4
a(I-10
I92
tp5
a(I810
I92
tp6
a(I-10
I138
tp7
a(I810
I138
tp8
a(I-10
I184
tp9
a(I810
I184
tp10
a(I-10
I230
tp11
a(I810
I230
tp12
a(I-10
I276
tp13
a(I810
I276
tp14
a(I810
I0
tp15
a(I-10
I138
tp16
a(I-10
I276
tp17
a(I-10
I184
tp18
a(I810
I184
tp19
a(I-10
I230
tp20
a(I810
I230
tp21
a(I-10
I0
tp22
a(I810
I276
tp23
a(I810
I92
tp24
a(I810
I138
tp25
a(I810
I46
tp26
a(I-10
I92
tp27
a(I810
I0
tp28
a(I-10
I46
tp29
a.(lp1
(I520
I-10
tp2
a(I520
I305
tp3
a(I572
I-10
tp4
a(I572
I305
tp5
a(I624
I-10
tp6
a(I468
I-10
tp7
a(I676
I-10
tp8
a(I676
I305
tp9
a(I208
I305
tp10
a(I728
I-10
tp11
a(I728
I305
tp12
a(I626
I77
tp13
a(I780
I-10
tp14
a(I780
I305
tp15
a(I0
I-10
tp16
a(I52
I305
tp17
a(I580
I185
tp18
a(I728
I305
tp19
a(I780
I-10
tp20
a(I725
I77
tp21
a(I780
I305
tp22
a(I0
I305
tp23
a(I156
I-10
tp24
a(I0
I305
tp25
a(I0
I-10
tp26
a(I52
I-10
tp27
a(I52
I305
tp28
a(I624
I305
tp29
a(I104
I-10
tp30
a(I532
I185
tp31
a(I104
I305
tp32
a(I156
I305
tp33
a(I676
I77
tp34
a(I208
I-10
tp35
a(I208
I305
tp36
a(I260
I-10
tp37
a(I260
I305
tp38
a(I312
I-10
tp39
a(I468
I305
tp40
a(I312
I305
tp41
a(I364
I-10
tp42
a(I364
I305
tp43
a(I416
I-10
tp44
a(I416
I305
tp45
a(I416
I305
tp46
a(I578
I77
tp47
a(I468
I-10
tp48
a(I775
I77
tp49
a(I520
I-10
tp50
a(I520
I305
tp51
a(I572
I-10
tp52
a(I572
I305
tp53
a(I624
I-10
tp54
a(I624
I305
tp55
a(I676
I-10
tp56
a(I468
I305
tp57
a(I676
I305
tp58
a(I728
I-10
tp59
a(I104
I305
tp60
a(I52
I-10
tp61
a(I156
I-10
tp62
a(I156
I305
tp63
a(I208
I-10
tp64
a(I104
I-10
tp65
a(I260
I-10
tp66
a(I260
I305
tp67
a(I484
I185
tp68
a(I312
I-10
tp69
a(I312
I305
tp70
a(I364
I-10
tp71
a(I364
I305
tp72
a(I416
I-10
tp73
a.(lp1
.(lp1
.(lp1
(I471
I237
tp2
a(I581
I118
tp3
a.(I775
I40
t.