S'Basement'
p1
.(I800
I300
tp1
.(I31
I269
tp1
.(lp1
(I810
I184
tp2
a(I-10
I230
tp3
a(I810
I230
tp4
a(I-10
I276
tp5
a(I810
I276
tp6
a(I810
I0
tp7
a(I-10
I138
tp8
a(I-10
I276
tp9
a(I-10
I184
tp10
a(I810
I184
tp11
a(I-10
I230
tp12
a(I810
I230
tp13
a(I-10
I0
tp14
a(I810
I276
tp15
a(I810
I92
tp16
a(I810
I138
tp17
a(I810
I138
tp18
a(I-10
I92
tp19
a(I810
I0
tp20
a(I810
I0
tp21
a(I810
I46
tp22
a(I-10
I46
tp23
a(I-10
I0
tp24
a(I-10
I46
tp25
a(I810
I46
tp26
a(I-10
I92
tp27
a(I810
I92
tp28
a(I-10
I138
tp29
a(I-10
I184
tp30
a(I810
I184
tp31
a(I-10
I230
tp32
a(I810
I230
tp33
a(I-10
I276
tp34
a(I810
I276
tp35
a(I810
I92
tp36
a(I-10
I46
tp37
a(I-10
I0
tp38
a(I810
I46
tp39
a(I-10
I92
tp40
a(I-10
I138
tp41
a(I810
I138
tp42
a(I-10
I184
tp43
a.(lp1
(I0
I-10
tp2
a(I0
I305
tp3
a(I624
I305
tp4
a(I364
I304
tp5
a(I725
I77
tp6
a(I156
I305
tp7
a(I260
I-10
tp8
a(I208
I304
tp9
a(I312
I305
tp10
a(I312
I305
tp11
a(I416
I305
tp12
a(I624
I-8
tp13
a(I775
I77
tp14
a(I156
I304
tp15
a(I728
I-8
tp16
a(I52
I305
tp17
a(I104
I304
tp18
a(I468
I305
tp19
a(I52
I-10
tp20
a(I0
I304
tp21
a(I572
I-10
tp22
a(I260
I-8
tp23
a(I676
I-10
tp24
a(I728
I305
tp25
a(I580
I185
tp26
a(I156
I-10
tp27
a(I52
I305
tp28
a(I468
I-8
tp29
a(I104
I305
tp30
a(I104
I-10
tp31
a(I208
I305
tp32
a(I260
I304
tp33
a(I312
I-10
tp34
a(I468
I305
tp35
a(I416
I-10
tp36
a(I468
I304
tp37
a(I416
I-10
tp38
a(I572
I304
tp39
a(I468
I-10
tp40
a(I260
I-10
tp41
a(I676
I304
tp42
a(I572
I-10
tp43
a(I364
I305
tp44
a(I208
I-8
tp45
a(I780
I304
tp46
a(I676
I-10
tp47
a(I104
I305
tp48
a(I728
I305
tp49
a(I520
I305
tp50
a(I312
I-8
tp51
a(I468
I-10
tp52
a(I728
I-10
tp53
a(I780
I-10
tp54
a(I0
I305
tp55
a(I52
I-10
tp56
a(I312
I304
tp57
a(I532
I185
tp58
a(I208
I-10
tp59
a(I208
I-10
tp60
a(I484
I185
tp61
a(I0
I-8
tp62
a(I312
I-10
tp63
a(I364
I305
tp64
a(I572
I-8
tp65
a(I578
I77
tp66
a(I676
I-8
tp67
a(I520
I305
tp68
a(I626
I77
tp69
a(I780
I-8
tp70
a(I624
I305
tp71
a(I728
I-10
tp72
a(I780
I305
tp73
a(I156
I305
tp74
a(I572
I305
tp75
a(I520
I-10
tp76
a(I364
I-8
tp77
a(I624
I-10
tp78
a(I208
I305
tp79
a(I780
I-10
tp80
a(I0
I-10
tp81
a(I520
I-8
tp82
a(I104
I-10
tp83
a(I52
I304
tp84
a(I676
I77
tp85
a(I260
I305
tp86
a(I52
I-8
tp87
a(I260
I305
tp88
a(I364
I-10
tp89
a(I416
I304
tp90
a(I364
I-10
tp91
a(I156
I-8
tp92
a(I520
I304
tp93
a(I416
I305
tp94
a(I624
I304
tp95
a(I520
I-10
tp96
a(I104
I-8
tp97
a(I728
I304
tp98
a(I780
I305
tp99
a(I624
I-10
tp100
a(I676
I305
tp101
a(I572
I305
tp102
a(I156
I-10
tp103
a(I416
I-8
tp104
a(I676
I305
tp105
a.(lp1
.(lp1
.(lp1
(I471
I237
tp2
a(I581
I118
tp3
a.(I775
I40
t.S'data/levels\\tut1.lvl'
p1
.