S'Basement'
p1
.(I800
I300
tp1
.(I27
I273
tp1
.(lp1
(I810
I184
tp2
a(I-10
I230
tp3
a(I810
I230
tp4
a(I-10
I276
tp5
a(I810
I276
tp6
a(I810
I0
tp7
a(I-10
I138
tp8
a(I-10
I276
tp9
a(I810
I230
tp10
a(I810
I184
tp11
a(I-10
I0
tp12
a(I-10
I230
tp13
a(I810
I138
tp14
a(I810
I230
tp15
a(I-10
I46
tp16
a(I-10
I0
tp17
a(I810
I46
tp18
a(I810
I276
tp19
a(I-10
I92
tp20
a(I810
I92
tp21
a(I810
I92
tp22
a(I810
I138
tp23
a(I-10
I138
tp24
a(I810
I46
tp25
a(I810
I184
tp26
a(I-10
I92
tp27
a(I810
I0
tp28
a(I-10
I46
tp29
a(I-10
I184
tp30
a(I-10
I230
tp31
a(I-10
I184
tp32
a(I-10
I46
tp33
a(I-10
I276
tp34
a(I810
I276
tp35
a(I810
I0
tp36
a(I-10
I0
tp37
a(I810
I46
tp38
a(I-10
I92
tp39
a(I810
I92
tp40
a(I-10
I138
tp41
a(I810
I138
tp42
a(I-10
I184
tp43
a.(lp1
(I312
I304
tp2
a(I312
I-10
tp3
a(I520
I-10
tp4
a(I260
I305
tp5
a(I676
I-8
tp6
a(I364
I-10
tp7
a(I208
I305
tp8
a(I416
I305
tp9
a(I780
I305
tp10
a(I572
I-10
tp11
a(I728
I305
tp12
a(I676
I-10
tp13
a(I0
I-8
tp14
a(I104
I305
tp15
a(I156
I-8
tp16
a(I52
I305
tp17
a(I208
I-10
tp18
a(I156
I305
tp19
a(I676
I305
tp20
a(I156
I304
tp21
a(I416
I-10
tp22
a(I676
I304
tp23
a(I520
I-8
tp24
a(I260
I304
tp25
a(I780
I304
tp26
a(I260
I-10
tp27
a(I572
I305
tp28
a(I312
I305
tp29
a(I728
I-8
tp30
a(I364
I304
tp31
a(I416
I305
tp32
a(I780
I-10
tp33
a(I520
I305
tp34
a(I376
I210
tp35
a(I624
I305
tp36
a(I0
I305
tp37
a(I208
I-8
tp38
a(I52
I-10
tp39
a(I156
I305
tp40
a(I104
I305
tp41
a(I260
I305
tp42
a(I572
I-10
tp43
a(I364
I305
tp44
a(I312
I-8
tp45
a(I728
I304
tp46
a(I624
I-10
tp47
a(I468
I304
tp48
a(I104
I304
tp49
a(I416
I-8
tp50
a(I728
I-10
tp51
a(I780
I-8
tp52
a(I676
I-10
tp53
a(I416
I-10
tp54
a(I728
I305
tp55
a(I520
I-10
tp56
a(I260
I-8
tp57
a(I52
I305
tp58
a(I624
I-10
tp59
a(I780
I305
tp60
a(I676
I305
tp61
a(I156
I-10
tp62
a(I0
I-10
tp63
a(I156
I-10
tp64
a(I104
I-10
tp65
a(I260
I-10
tp66
a(I416
I304
tp67
a(I520
I305
tp68
a(I208
I305
tp69
a(I364
I-10
tp70
a(I572
I304
tp71
a(I572
I-8
tp72
a(I208
I304
tp73
a(I468
I305
tp74
a(I624
I-8
tp75
a(I468
I-10
tp76
a(I364
I305
tp77
a(I52
I-8
tp78
a(I728
I-10
tp79
a(I468
I-10
tp80
a(I0
I-10
tp81
a(I572
I305
tp82
a(I780
I-10
tp83
a(I468
I305
tp84
a(I364
I-8
tp85
a(I0
I305
tp86
a(I52
I-10
tp87
a(I624
I305
tp88
a(I104
I-10
tp89
a(I104
I-8
tp90
a(I0
I304
tp91
a(I52
I304
tp92
a(I208
I-10
tp93
a(I312
I305
tp94
a(I468
I-8
tp95
a(I624
I304
tp96
a(I520
I304
tp97
a(I312
I-10
tp98
a.(lp1
(I374
I225
tp2
a.(lp1
.(lp1
.(I767
I263
t.S'data/levels\\tut2.lvl'
p1
.