S'Basement'
p1
.(I800
I300
tp1
.(I27
I273
tp1
.(lp1
(I-10
I46
tp2
a(I-10
I0
tp3
a(I810
I46
tp4
a(I-10
I92
tp5
a(I810
I92
tp6
a(I-10
I138
tp7
a(I810
I138
tp8
a(I-10
I184
tp9
a(I810
I184
tp10
a(I-10
I230
tp11
a(I810
I230
tp12
a(I-10
I276
tp13
a(I810
I276
tp14
a(I810
I0
tp15
a(I-10
I138
tp16
a(I-10
I276
tp17
a(I-10
I184
tp18
a(I810
I184
tp19
a(I-10
I230
tp20
a(I810
I230
tp21
a(I-10
I0
tp22
a(I810
I276
tp23
a(I810
I92
tp24
a(I810
I138
tp25
a(I810
I46
tp26
a(I-10
I92
tp27
a(I810
I0
tp28
a(I-10
I46
tp29
a.(lp1
(I520
I-10
tp2
a(I520
I305
tp3
a(I572
I-10
tp4
a(I572
I305
tp5
a(I624
I-10
tp6
a(I468
I-10
tp7
a(I676
I-10
tp8
a(I676
I305
tp9
a(I208
I305
tp10
a(I728
I-10
tp11
a(I728
I305
tp12
a(I780
I-10
tp13
a(I780
I305
tp14
a(I0
I-10
tp15
a(I52
I305
tp16
a(I376
I210
tp17
a(I728
I305
tp18
a(I780
I-10
tp19
a(I780
I305
tp20
a(I0
I305
tp21
a(I156
I-10
tp22
a(I0
I305
tp23
a(I0
I-10
tp24
a(I52
I-10
tp25
a(I52
I305
tp26
a(I624
I305
tp27
a(I104
I-10
tp28
a(I104
I305
tp29
a(I156
I305
tp30
a(I208
I-10
tp31
a(I208
I305
tp32
a(I260
I-10
tp33
a(I260
I305
tp34
a(I312
I-10
tp35
a(I468
I305
tp36
a(I312
I305
tp37
a(I364
I-10
tp38
a(I364
I305
tp39
a(I416
I-10
tp40
a(I416
I305
tp41
a(I416
I305
tp42
a(I468
I-10
tp43
a(I520
I-10
tp44
a(I520
I305
tp45
a(I572
I-10
tp46
a(I572
I305
tp47
a(I624
I-10
tp48
a(I624
I305
tp49
a(I676
I-10
tp50
a(I468
I305
tp51
a(I676
I305
tp52
a(I728
I-10
tp53
a(I104
I305
tp54
a(I52
I-10
tp55
a(I156
I-10
tp56
a(I156
I305
tp57
a(I208
I-10
tp58
a(I104
I-10
tp59
a(I260
I-10
tp60
a(I260
I305
tp61
a(I312
I-10
tp62
a(I312
I305
tp63
a(I364
I-10
tp64
a(I364
I305
tp65
a(I416
I-10
tp66
a.(lp1
(I374
I225
tp2
a.(lp1
.(lp1
.(I767
I263
t.