S'Basement'
p1
.(I800
I300
tp1
.(I30
I271
tp1
.(lp1
(I407
I280
tp2
a(I-10
I276
tp3
a(I-10
I46
tp4
a(I810
I276
tp5
a(I407
I208
tp6
a(I-10
I46
tp7
a(I-10
I0
tp8
a(I810
I46
tp9
a(I-10
I276
tp10
a(I-10
I92
tp11
a(I810
I92
tp12
a(I-10
I138
tp13
a(I810
I138
tp14
a(I-10
I184
tp15
a(I810
I184
tp16
a(I407
I239
tp17
a(I810
I230
tp18
a(I810
I0
tp19
a(I810
I276
tp20
a(I810
I0
tp21
a(I-10
I92
tp22
a(I810
I0
tp23
a(I-10
I0
tp24
a(I-10
I46
tp25
a(I810
I46
tp26
a(I-10
I92
tp27
a(I810
I92
tp28
a(I-10
I138
tp29
a(I-10
I138
tp30
a(I810
I138
tp31
a(I-10
I184
tp32
a(I810
I184
tp33
a(I-10
I230
tp34
a(I810
I230
tp35
a(I-10
I276
tp36
a(I-10
I276
tp37
a(I810
I276
tp38
a(I-10
I46
tp39
a(I-10
I0
tp40
a(I-10
I0
tp41
a(I810
I46
tp42
a(I810
I92
tp43
a(I-10
I138
tp44
a(I-10
I184
tp45
a(I810
I184
tp46
a(I810
I138
tp47
a(I810
I92
tp48
a(I810
I138
tp49
a(I-10
I230
tp50
a(I-10
I184
tp51
a(I810
I230
tp52
a(I810
I46
tp53
a(I810
I276
tp54
a(I810
I184
tp55
a(I-10
I230
tp56
a(I-10
I92
tp57
a(I-10
I230
tp58
a(I810
I0
tp59
a(I810
I230
tp60
a.(lp1
(I780
I-10
tp2
a(I52
I-10
tp3
a(I728
I-10
tp4
a(I104
I305
tp5
a(I520
I-8
tp6
a(I312
I305
tp7
a(I0
I305
tp8
a(I52
I-10
tp9
a(I468
I-8
tp10
a(I624
I-8
tp11
a(I416
I305
tp12
a(I156
I304
tp13
a(I728
I-8
tp14
a(I208
I305
tp15
a(I260
I305
tp16
a(I728
I305
tp17
a(I312
I-10
tp18
a(I364
I305
tp19
a(I468
I305
tp20
a(I780
I305
tp21
a(I780
I305
tp22
a(I312
I-10
tp23
a(I260
I304
tp24
a(I312
I305
tp25
a(I624
I-10
tp26
a(I0
I-10
tp27
a(I728
I305
tp28
a(I52
I305
tp29
a(I468
I304
tp30
a(I156
I-10
tp31
a(I260
I-10
tp32
a(I780
I-10
tp33
a(I156
I-8
tp34
a(I0
I-10
tp35
a(I624
I305
tp36
a(I260
I305
tp37
a(I416
I304
tp38
a(I156
I305
tp39
a(I468
I305
tp40
a(I364
I-10
tp41
a(I312
I304
tp42
a(I572
I304
tp43
a(I676
I305
tp44
a(I676
I304
tp45
a(I624
I-10
tp46
a(I780
I304
tp47
a(I468
I-10
tp48
a(I104
I-10
tp49
a(I364
I305
tp50
a(I676
I305
tp51
a(I520
I305
tp52
a(I208
I305
tp53
a(I104
I305
tp54
a(I208
I-8
tp55
a(I416
I-10
tp56
a(I499
I189
tp57
a(I520
I305
tp58
a(I780
I305
tp59
a(I416
I-8
tp60
a(I104
I304
tp61
a(I0
I-10
tp62
a(I208
I-10
tp63
a(I312
I-10
tp64
a(I520
I-10
tp65
a(I260
I305
tp66
a(I156
I305
tp67
a(I104
I-10
tp68
a(I0
I305
tp69
a(I676
I-8
tp70
a(I416
I-10
tp71
a(I572
I-10
tp72
a(I364
I305
tp73
a(I676
I305
tp74
a(I572
I-8
tp75
a(I468
I-10
tp76
a(I0
I305
tp77
a(I520
I-10
tp78
a(I156
I305
tp79
a(I780
I-8
tp80
a(I52
I-8
tp81
a(I572
I305
tp82
a(I312
I305
tp83
a(I353
I189
tp84
a(I676
I-10
tp85
a(I624
I305
tp86
a(I416
I305
tp87
a(I208
I304
tp88
a(I520
I305
tp89
a(I416
I-10
tp90
a(I312
I-8
tp91
a(I676
I-10
tp92
a(I104
I-8
tp93
a(I572
I305
tp94
a(I572
I-10
tp95
a(I156
I-10
tp96
a(I52
I304
tp97
a(I364
I304
tp98
a(I364
I-10
tp99
a(I468
I-10
tp100
a(I364
I-10
tp101
a(I416
I305
tp102
a(I104
I-10
tp103
a(I728
I-10
tp104
a(I728
I-10
tp105
a(I52
I305
tp106
a(I520
I304
tp107
a(I52
I305
tp108
a(I307
I189
tp109
a(I572
I305
tp110
a(I0
I304
tp111
a(I624
I-10
tp112
a(I404
I189
tp113
a(I624
I304
tp114
a(I156
I-10
tp115
a(I728
I304
tp116
a(I52
I-10
tp117
a(I208
I305
tp118
a(I260
I-10
tp119
a(I104
I305
tp120
a(I520
I-10
tp121
a(I208
I-10
tp122
a(I676
I-10
tp123
a(I260
I-10
tp124
a(I260
I-8
tp125
a(I572
I-10
tp126
a(I780
I-10
tp127
a(I448
I189
tp128
a(I468
I305
tp129
a(I728
I305
tp130
a(I0
I-8
tp131
a(I364
I-8
tp132
a(I624
I305
tp133
a(I208
I-10
tp134
a.(lp1
.(lp1
(I612
I265
tp2
a.(lp1
(I295
I238
tp2
a(I444
I237
tp3
a.(I764
I264
t.S'data/levels\\tut3.lvl'
p1
.