S'Basement'
p1
.(I800
I300
tp1
.(I30
I271
tp1
.(lp1
(I-10
I46
tp2
a(I-10
I0
tp3
a(I-10
I0
tp4
a(I810
I46
tp5
a(I-10
I92
tp6
a(I810
I92
tp7
a(I-10
I138
tp8
a(I810
I92
tp9
a(I810
I138
tp10
a(I810
I138
tp11
a(I-10
I184
tp12
a(I810
I46
tp13
a(I810
I184
tp14
a(I-10
I92
tp15
a(I-10
I230
tp16
a(I810
I0
tp17
a(I810
I230
tp18
a(I407
I280
tp19
a(I-10
I276
tp20
a(I-10
I46
tp21
a(I810
I276
tp22
a(I407
I208
tp23
a(I-10
I46
tp24
a(I-10
I0
tp25
a(I810
I46
tp26
a(I-10
I92
tp27
a(I810
I92
tp28
a(I-10
I138
tp29
a(I810
I138
tp30
a(I-10
I184
tp31
a(I810
I184
tp32
a(I407
I239
tp33
a(I810
I230
tp34
a(I-10
I276
tp35
a(I810
I276
tp36
a(I810
I0
tp37
a(I-10
I138
tp38
a(I-10
I276
tp39
a(I-10
I184
tp40
a(I810
I184
tp41
a(I810
I0
tp42
a(I-10
I230
tp43
a(I810
I230
tp44
a(I810
I276
tp45
a(I-10
I230
tp46
a.(lp1
(I468
I-10
tp2
a(I520
I-10
tp3
a(I780
I-10
tp4
a(I624
I305
tp5
a(I104
I-10
tp6
a(I520
I-10
tp7
a(I728
I-10
tp8
a(I364
I305
tp9
a(I624
I305
tp10
a(I520
I305
tp11
a(I156
I305
tp12
a(I468
I-10
tp13
a(I728
I-10
tp14
a(I520
I305
tp15
a(I0
I-10
tp16
a(I780
I-10
tp17
a(I728
I-10
tp18
a(I0
I305
tp19
a(I260
I305
tp20
a(I104
I305
tp21
a(I52
I305
tp22
a(I416
I-10
tp23
a(I156
I305
tp24
a(I312
I305
tp25
a(I307
I189
tp26
a(I364
I305
tp27
a(I364
I-10
tp28
a(I572
I-10
tp29
a(I624
I-10
tp30
a(I468
I-10
tp31
a(I676
I305
tp32
a(I416
I305
tp33
a(I156
I-10
tp34
a(I520
I-10
tp35
a(I624
I-10
tp36
a(I208
I305
tp37
a(I52
I-10
tp38
a(I572
I305
tp39
a(I780
I305
tp40
a(I728
I305
tp41
a(I260
I-10
tp42
a(I353
I189
tp43
a(I676
I305
tp44
a(I52
I-10
tp45
a(I208
I-10
tp46
a(I416
I305
tp47
a(I104
I305
tp48
a(I312
I-10
tp49
a(I260
I-10
tp50
a(I416
I-10
tp51
a(I499
I189
tp52
a(I624
I-10
tp53
a(I448
I189
tp54
a(I572
I305
tp55
a(I572
I-10
tp56
a(I468
I305
tp57
a(I52
I-10
tp58
a(I572
I305
tp59
a(I676
I305
tp60
a(I780
I-10
tp61
a(I416
I305
tp62
a(I104
I-10
tp63
a(I0
I305
tp64
a(I0
I305
tp65
a(I404
I189
tp66
a(I156
I305
tp67
a(I104
I-10
tp68
a(I468
I305
tp69
a(I260
I305
tp70
a(I208
I305
tp71
a(I312
I305
tp72
a(I364
I305
tp73
a(I312
I-10
tp74
a(I104
I305
tp75
a(I676
I-10
tp76
a(I208
I305
tp77
a(I780
I305
tp78
a(I676
I-10
tp79
a(I520
I305
tp80
a(I416
I-10
tp81
a(I312
I305
tp82
a(I572
I-10
tp83
a(I676
I-10
tp84
a(I208
I-10
tp85
a(I728
I305
tp86
a(I468
I305
tp87
a(I52
I305
tp88
a(I780
I305
tp89
a(I52
I305
tp90
a(I728
I305
tp91
a(I156
I-10
tp92
a(I0
I-10
tp93
a(I156
I-10
tp94
a(I624
I305
tp95
a(I364
I-10
tp96
a(I312
I-10
tp97
a(I260
I-10
tp98
a(I208
I-10
tp99
a(I364
I-10
tp100
a(I260
I305
tp101
a(I0
I-10
tp102
a.(lp1
.(lp1
(I612
I265
tp2
a.(lp1
(I295
I238
tp2
a(I444
I237
tp3
a.(I764
I264
t.